(dp0
S'lifetimes'
p1
(lp2
F8.387439937779526
aF17.174879875559327
aF10.862319813338914
aF6.949759751118535
aF6.437199688898204
aF9.12463962667708
aF10.712079564456019
aF6.699519502235276
aF6.686959440014306
aF8.674399377793236
aF11.761839315572104
aF8.149279253351324
aF7.03671919113043
aF6.324159128909514
aF19.411599066687813
aF15.199039004467068
aF6.886478942246583
aF12.373918880025315
aF10.96135881780441
aF7.34879875558363
aF7.536238693362861
aF10.523678631145174
aF18.01111856892851
aF12.598558506708912
aF10.185998444489996
aF17.673438382273332
aF9.16087832005303
aF8.548318257834524
aF8.135758195616063
aF12.523198133398694
aF6.51063807117896
aF8.798078008961113
aF6.48551794674222
aF9.672957884524578
aF7.360397822305686
aF7.247837760087293
aF11.335277697869856
aF7.422717635650599
aF7.910157573432343
aF7.497597511213883
aF7.685037448995558
aF7.172477386777075
aF6.759917324558501
aF7.047357262340142
aF6.0347972001214885
aF7.42223713790338
aF9.8096770756855
aF6.297117013466277
aF8.584556951248373
aF6.971996889029583
aF6.859436826811134
aF6.646876764592662
aF6.134316702374122
aF11.02175664015681
aF6.409196577937337
aF6.696636515718978
aF10.384076453501393
aF8.971516391282648
aF7.1589563290638125
aF7.246396266845409
aF7.733836204627096
aF9.321276142409033
aF6.108716080189879
aF18.996156017974386
aF11.383595955754231
aF12.771035893536123
aF8.258475831316673
aF16.04591576910002
aF9.033355706880002
aF6.820795644661075
aF8.108235582442944
aF12.295675520225473
aF7.283115458005909
aF7.770555395787596
aF6.757995333568942
aF15.445435271352494
aF7.032875209132158
aF6.420315146913595
aF6.207755084695123
aF6.69519502247681
aF7.28263496025852
aF6.270074898039866
aF11.357514835822599
aF7.644954773603331
aF15.932394711376674
aF7.01983464915611
aF8.007274586926542
aF8.094714524697793
aF10.482154462466951
aF14.669594400234473
aF6.457034338013273
aF8.844474275782432
aF8.431914213554137
aF6.719354151327025
aF7.106794089098003
aF8.194234026868344
aF7.481673964640322
aF12.569113902407025
aF6.756553840183642
aF8.043993777953801
aF7.531433715725598
aF6.41887365349794
aF59.606313591220896
aF52.09375352899906
aF43.88119346677786
aF47.36863340454602
aF41.75607334232245
aF38.343513280096886
aF31.93095321787405
aF25.4183931556513
aF17.605833093429737
aF11.293273031206809
aF15.080712968974694
aF8.468152906752039
aF7.655592844524108
aF7.843032782295268
aF6.73047272006761
aF11.11791265783495
aF7.205352595609838
aF8.19279253338027
aF13.380232471146883
aF6.367672408924591
aF7.255112346695114
aF6.842552284466819
aF9.629992222235614
aF12.817432160004046
aF8.904872097778934
aF7.992312035551095
aF10.67975197331998
aF6.567191911095051
aF8.354631848864756
aF6.842071786637462
aF7.429511724408258
aF9.116951662178053
aF12.604391599946211
aF12.491831537717644
aF7.77927147549326
aF6.6667114132656025
aF7.05415135103658
aF10.241591288805012
aF10.62903122657599
aF13.616471164344603
aF6.803911102122129
aF9.091351039891379
aF10.478790977661447
aF9.166230915433971
aF7.653670853206677
aF8.641110790977109
aF8.62855072874845
aF7.1159906665211565
aF7.503430604292134
aF6.590870542064295
aF6.178310479836
aF11.365750417602612
aF6.753190355378138
aF7.440630293148843
aF17.628070230910907
aF8.815510168690253
aF10.702950106459866
aF7.2903900442343
aF6.977829982005915
aF8.565269919775801
aF6.852709857548689
aF27.440149795301295
aF18.72758973308055
aF11.815029670858166
aF6.402469608634419
aF6.689909546405488
aF6.477349484177012
aF19.064789421936894
aF15.052229359711873
aF27.439669297471937
aF40.22710923523164
aF42.41454917300098
aF38.30198911077605
aF46.98942904853948
aF38.37686898631864
aF30.464308924097168
aF21.751748861876422
aF15.139188799653766
aF10.426628737429382
aF8.614068675202361
aF9.501508612972884
aF9.588948550744135
aF8.676388488516295
aF6.363828426289729
aF7.951268364059615
aF6.838708301831957
aF7.226148239602935
aF18.913588177363636
aF11.901028115141344
aF6.588468052917506
aF8.175907990687392
aF7.363347928459461
aF12.750787866225892
aF8.538227804001053
aF6.625667741774123
aF8.813107679543464
aF7.700547617315806
aF6.887987555087875
aF6.075427492859944
aF8.262867430629285
aF6.8503073684019
aF9.837747306170513
aF15.125187243937035
aF67.3126271816609
aF60.40006711943852
aF53.0875070572165
aF44.77494699499539
aF39.46238693277155
aF30.649826870550896
aF22.637266808329514
aF15.92470674610695
aF10.012146683883657
aF6.899586621657818
aF11.387026559425067
aF7.174466497200228
aF10.961906434968114
aF9.34934637274091
aF10.536786310511161
aF6.424226248286232
aF8.011666186056118
aF16.39910612381982
aF14.986546061592435
aF7.173985999370871
aF8.36142593714112
aF8.848865874912008
aF6.236305812685714
aF7.223745750456146
aF9.411185688225487
aF8.498625625997647
aF7.086065563770262
aF6.6735055015419675
aF7.460945439312582
aF7.048385377084287
aF6.435825314856174
aF6.123265252627789
aF7.010705190398312
aF6.198145128170381
aF7.185585065940813
aF6.373025003712883
aF16.560464941474947
aF8.947904879253201
aF9.535344817023997
aF8.522784754796248
aF9.51022469256668
aF9.597664630337931
aF8.185104568110546
aF14.872544505875794
aF10.659984443650956
aF7.0474243814255715
aF6.734864319197186
aF11.922304256963798
aF8.909744194737868
aF7.197184132510756
aF6.184624070283007
aF6.572064008053985
aF6.659503945825236
aF10.346943883593212
aF8.134383821366555
aF8.021823759137988
aF8.809263696908602
aF9.496703634679307
aF8.384143572451649
aF8.4715835102229
aF7.359023447995241
aF8.346463385765674
aF10.533903323535014
aF9.02134326130772
aF10.808783199077425
aF10.196223136849312
aF8.783663074621927
aF7.171103012394724
aF14.358542950159517
aF8.745982887935952
aF7.633422825708294
aF6.820862763480363
aF6.408302701252069
aF7.195742639022683
aF6.783182576794388
aF6.470622514566003
aF8.758062452335253
aF19.445502390096863
aF10.832942327876026
aF13.920382265644548
aF7.007822203422165
aF6.0952621411943255
aF8.282702078963666
aF8.970142016734371
aF16.957581954498437
aF8.44502189227751
aF7.5324618300496695
aF13.519901767815554
aF6.207341705593535
aF7.4947816433636945
aF8.882221581133763
aF8.769661518905195
aF6.957101456678174
aF7.744541394448788
aF9.631981332218402
aF10.01942126998938
aF8.706861207761904
aF10.094301145531972
aF7.181741083305951
aF6.269181021078111
aF10.956620958845178
aF8.144060896619067
aF7.331500834391136
aF10.21894077215984
aF6.1063807099349106
aF8.49382064770407
aF6.781260585476957
aF7.268700523247844
aF6.8561404610195495
aF6.343580398791346
aF9.731020336559595
aF6.018460274334302
aF6.805900212104916
aF7.093340149875985
aF13.880780087641142
aF9.06822002541685
aF6.555659963190465
aF6.343099900961988
aF12.730539838727509
aF10.61797977650076
aF10.505419714272193
aF6.092859652047537
aF7.480299589817605
aF11.867739527584945
aF6.455179465361198
aF9.342619403129902
aF8.930059340901607
aF10.017499278671949
aF11.904939216441562
aF18.892379154206537
aF11.579819091984518
aF6.567259029760407
aF6.754698967531567
aF12.242138905297907
aF6.029578843074887
aF6.617018780845683
aF10.104458718670685
aF6.891898656471312
aF7.079338594284309
aF9.266778532104581
aF7.654218469911029
aF9.841658407731302
aF7.529098345535203
aF7.016538283345653
aF6.903978221157558
aF6.491418158968372
aF7.978858096786098
aF8.666298034600914
aF6.853737972406634
aF13.141177910241822
aF6.628617848030444
aF6.816057785843441
aF6.603497723654982
aF8.290937661473436
aF10.878377599295163
aF7.565817537095427
aF6.553257474904058
aF6.6406974127166905
aF8.328137350535144
aF7.615577288344866
aF6.603017226153497
aF7.090457163967585
aF6.677897101778399
aF6.365337039589576
aF7.452776977405847
aF7.6402169152188435
aF9.227656853036933
aF15.915096790873577
aF8.302536728658197
aF9.789976666475923
aF11.377416604294012
aF8.064856542094276
aF11.252296479918186
aF8.73973641772136
aF6.527176355525626
aF13.014616293361541
aF7.602056231154165
aF10.289496168976257
aF6.476936106774701
aF6.864376044588425
aF7.451815982402877
aF8.939255920220603
aF8.926695858032872
aF10.614135795851325
aF6.601575733649042
aF8.289015671467496
aF10.676455609288496
aF14.46389554711459
aF6.551335484898118
aF13.438775422735489
aF6.226215360521564
aF6.413655298334561
aF11.201095236164292
aF8.088535173965283
aF22.575975111830303
aF13.863415049610921
aF9.950854987409002
aF6.938294925210357
aF9.025734863030266
aF37.61317480094658
aF28.9006147387272
aF20.688054676509637
aF13.875494614297168
aF9.162934552092338
aF10.250374489908609
aF8.43781442771433
aF9.425254365530236
aF14.612694303361422
aF8.00013424114968
aF6.68757417895722
aF6.17501411676767
aF6.362454054580667
aF6.449893992393299
aF7.937333930211025
aF9.92477386803057
aF6.112213805829015
aF8.199653743648923
aF6.5870936814553716
aF6.774533619268368
aF30.361973557166493
aF22.449413494950022
aF14.636853432733915
aF11.62429337053527
aF7.511733308332623
aF6.1991732461401625
aF13.086613183977533
aF7.5740531217697935
aF8.461493059585337
aF19.548932997437987
aF12.636372935225154
aF12.423812873036695
aF8.911252810836231
aF8.398692748646681
aF9.68613268646368
aF6.273572624263579
aF18.561012562120595
aF14.948452499919767
aF10.335892437715302
aF14.823332375543941
aF21.310772313379857
aF18.79821225118303
aF10.685652188965832
aF8.373092126769734
aF6.96053206457691
aF6.747972002388451
aF7.735411940204358
aF10.222851878025722
aF8.810291815832898
aF7.997731753642256
aF8.985171691458163
aF7.472611629264975
aF6.860051567075061
aF8.847491504894606
aF7.634931442702509
aF10.422371380524964
aF8.009811318328502
aF9.197251256145137
aF8.184691193953768
aF6.172131131758761
aF7.359571069575395
aF6.047011007382935
aF7.234450945199569
aF13.121890883033302
aF6.709330820822288
aF6.596770758634193
aF6.284210696445371
aF7.671650634262733
aF10.059090572083733
aF12.246530509904005
aF8.033970447700995
aF8.121410385513627
aF6.408850323319712
aF7.596290261136346
aF8.883730198953344
aF7.371170136760156
aF6.758610074570242
aF8.54605001238906
aF15.733489950227522
aF8.620929888013961
aF9.008369825827685
aF8.89580976363959
aF7.783249701447858
aF10.77068963927104
aF7.058129577069849
aF8.345569514886847
aF8.333009452699116
aF22.520449390563044
aF14.407889328345846
aF6.795329266130466
aF6.682769203942371
aF10.070209141767009
aF6.457649079566181
aF6.345089017378086
aF6.932528955192538
aF9.519968893014266
aF7.607408830819622
aF7.9948487686333465
aF8.482288706447434
aF45.06972864439285
aF36.35716858217347
aF27.844608519954818
aF19.73204845773762
aF12.819488395524786
aF6.706928333314863
aF6.194368271125313
aF8.081808208944494
aF6.469248146750942
aF7.156688084565758
aF7.544128022379482
aF7.2315679601906595
aF6.819007898001473
aF11.906447835832296
aF9.493887773635834
aF6.9813277114390075
aF7.768767649254187
aF10.456207587076278
aF8.443647524881271
aF7.63108746269063
aF7.2185274005014435
aF8.005967338316623
aF7.393407276126709
aF17.280847213974994
aF8.668287151755976
aF6.455727089560241
aF6.44316702737251
aF6.630606965185507
aF6.71804690299814
aF6.605486840810045
aF7.092926778624133
aF6.480366716434219
aF6.667806654247215
aF10.25524659207258
aF7.042686529873208
aF8.030126467689115
aF7.017566405497746
aF7.305006343311106
aF9.092446281129924
aF8.979886218941829
aF7.0673261567471855
aF8.154766094563456
aF7.9422060323749974
aF7.529645970185811
aF7.51708590799808
aF7.604525845810713
aF7.1919657836215265
aF8.179405721437433
aF7.0668456592457005
aF7.754285597060516
aF6.741725534869147
aF6.729165472681416
aF7.91660541049805
aF8.70404534831323
aF5.991485286115676
aF8.278925223936312
aF7.866365161747126
aF6.353805099553938
aF6.641245037367298
aF8.128684975185024
aF9.316124913001659
aF6.503564850803741
aF7.591004788620012
aF12.078444726448652
aF16.76588466427802
aF12.653324602075372
aF10.640764539880365
aF9.528204477688632
aF19.615644415537645
aF18.303084353345184
aF10.690524291129805
aF7.177964228929341
aF6.865404166740518
aF8.652844104559335
aF8.440284042370877
aF7.22772398017878
aF8.215163917994687
aF6.102603855799316
aF6.690043793613768
aF12.377483731446773
aF6.26492366923685
aF7.552363607053849
aF7.639803544866481
aF7.927243482679842
aF8.514683420494293
aF6.202123358298195
aF8.18956329611774
aF8.277003233930373
aF7.364443171739367
aF9.05188310955782
aF7.539323047364633
aF6.026762985171445
aF7.0142029229873515
aF6.20164286079671
aF6.8890827986115255
aF6.376522736421975
aF8.563962674242248
aF9.751402612058882
aF8.538842549866786
aF7.62628248767578
aF16.913722425521883
aF9.901162363308686
aF7.188602301111132
aF16.776042238958325
aF10.363482176747311
aF8.650922114553396
aF10.938362052374032
aF6.925801990171749
aF7.613241927986564
aF7.600681865798833
aF10.288121803620925
aF13.475561741444835
aF7.56300167923564
aF8.35044161705082
aF6.337881554855812
aF6.225321492667717
aF16.212761430516366
aF8.800201368301714
aF6.587641306105979
aF7.275081243920795
aF6.8625211817316085
aF6.449961119542422
aF7.2374010573576015
aF6.824840995168415
aF7.1122809329817755
aF7.899720870796955
aF8.487160808611407
aF10.474600746430951
aF8.8620406842374
aF11.2494806220584
aF6.236920559852479
aF6.624360497666203
aF6.911800435479563
aF10.499240373304929
aF6.686680311103373
aF15.374120248947293
aF8.46156018673446
aF6.64900012454018
aF6.8364400623531765
aF6.323880000163626
aF9.31131993798681
aF6.898759875790347
aF13.886199813628082
aF11.173639751430528
aF6.76107968922679
aF9.548519627049245
aF6.735959564851328
aF6.8233995026639604
aF7.510839440478776
aF13.6982793783136
aF15.785719316133509
aF8.47315925391922
aF6.660599191724941
aF17.848039129577955
aF10.235479067362576
aF8.52291900516866
aF6.410358942973289
aF6.6977988807866495
aF13.385238818623293
aF6.172678756409368
aF7.660118694227094
aF7.247558632037908
aF5.9349985698454475
aF13.622438507685729
aF7.109878445474351
aF9.397318383294987
aF16.08475832113163
aF10.372198258923163
aF6.459638196721244
aF11.747078134552794
aF13.334518072370884
aF12.121958010178787
aF7.009397947972502
aF8.596837885790592
aF6.584277823595585
aF8.07171776141331
aF6.859157699221214
aF6.446597637032028
aF15.634037574878676
aF8.121477512664569
aF18.008917450513763
aF10.696357388300385
aF7.18379732610083
aF7.571237263915464
aF9.35867720173519
aF9.246117139548005
aF11.833557077370642
aF11.320997015182002
aF13.308436953002456
aF8.6958768907989
aF7.383316828607349
aF9.870756766429622
aF7.658196704234797
aF8.845636642052341
aF6.933076579858607
aF7.620516517674332
aF6.707956455484236
aF32.59539639339164
aF48.28283633126193
aF43.070276269056194
aF35.35771620684136
aF26.845156144623616
aF19.432596082409873
aF11.020036020192492
aF8.207475957995484
aF6.594915895802842
aF9.18235583362548
aF6.669795771429563
aF6.957235709243832
aF6.1446756470541
aF14.232115584896746
aF6.119555522680457
aF6.206995460493999
aF6.394435398307905
aF9.881875336133817
aF6.469315273934626
aF6.756755211748896
aF8.74419514956935
aF6.631635087374889
aF7.21907502519025
aF8.30651496300743
aF8.893954900822791
aF8.681394838635242
aF8.66883477644842
aF7.856274714258689
aF24.54371465213262
aF15.731154589913785
aF12.218594527714231
aF7.106034465508856
aF7.993474403325308
aF41.380914341259995
aF41.5683542790739
aF33.7557942168587
aF27.043234154647507
aF19.030674092431582
aF11.91811403021893
aF7.005553968014283
aF7.992993905831099
aF6.5804338436391845
aF6.867873781453454
aF7.755313719269907
aF7.442753657081994
aF10.730193594907178
aF6.717633532705804
aF8.405073470525167
aF6.692513408332161
aF7.779953346149341
aF6.7673932839588815
aF7.55483322177497
aF29.742273159668912
aF21.229713097451167
aF15.717153035244337
aF7.604592973028048
aF8.192032910843409
aF6.779472848651494
aF9.06691278647304
aF12.554352724298951
aF9.441792662100852
aF7.929232599908573
aF12.816672537739578
aF7.004112475531656
aF6.491552413343015
aF7.17899235115874
aF7.566432288973374
aF7.553872226786552
aF6.841312164597184
aF9.028752102418366
aF6.816192040223541
aF26.60363197810875
aF20.591071915900102
aF11.87851185368163
aF7.565951791479165
aF6.053391729286886
aF10.240831667115344
aF6.628271604915426
aF6.315711542727513
aF7.503151480545057
aF6.29059141835387
aF8.67803135617578
aF7.065471293983137
aF10.85291123181014
aF9.240351169617497
aF6.727791107421581
aF8.915231045242763
aF9.702670983058852
aF14.390110920889128
aF6.477550858673567
aF13.16499079651112
aF12.15243073432066
aF8.23987067211965
aF34.8273106100296
aF27.614750547816584
aF20.40219048560357
aF11.989630423386188
aF8.977070361188453
aF10.464510299007088
aF7.251950236808625
aF6.439390174618893
aF18.026830112474272
aF9.914270050257983
aF15.101709988090079
aF8.889149925880702
aF9.476589863696063
aF8.064029801504148
aF6.251469739310778
aF7.63890967712905
aF9.626349614949504
aF9.713789552763046
aF6.901229490566038
aF22.088669428434514
aF15.776109366224773
aF8.463549304011394
aF6.650989241818024
aF6.338429179630111
aF6.825869117445109
aF8.21330905526338
aF7.600748993074376
aF8.888188930892284
aF15.975628868731292
aF11.363068806527735
aF6.350508744322724
aF15.037948682167553
aF12.125388619970181
aF7.512828557766625
aF7.000268495577984
aF6.287708433388616
aF7.575148371206524
aF8.262588309022249
aF6.950028246830698
aF7.637468184646423
aF7.4249081224588735
aF7.712348060273143
aF7.099787998084139
aF7.887227935900228
aF17.574667873748695
aF15.562107811554597
aF8.649547749342673
aF6.536987687148212
aF6.52442762496139
aF6.911867562776024
aF8.899307500596478
aF7.586747438404927
aF6.674187376214832
aF6.261627314026555
aF6.749067251841552
aF9.33650718966419
aF7.323947127470092
aF6.311387065279632
aF6.79882700309463
aF9.18626694091654
aF8.97370687872899
aF7.561146816537075
aF6.548586754346616
aF9.636026692171072
aF6.7234666299737
aF7.110906567788334
aF6.3983465055989655
aF10.385786443426696
aF10.073226381238783
aF8.060666319044685
aF9.148106256861865
aF6.3355461946648575
aF9.222986132488586
aF6.310426070291214
aF7.197866008107667
aF7.185305945920845
aF6.872745883732932
aF11.960185821564664
aF35.04762575946188
aF26.235065697243044
aF19.922505635033303
aF16.509945572834113
aF8.997385510620006
aF9.684825448435731
aF6.472265386237268
aF6.759705324051538
aF12.147145261884361
aF12.334585199698267
aF7.822025137495075
aF11.609465075322078
aF11.096905013133437
aF9.88434495094225
aF17.77178488878417
aF12.359224826577702
aF6.446664764369416
aF14.034104702210243
aF6.421544639995773
aF8.908984577818046
aF6.596424515622857
aF6.983864453437491
aF11.47130439126704
aF6.558744329062392
aF7.346184266878481
aF7.133624204690932
aF6.421064142501564
aF8.008504080320563
aF6.195944018127193
aF7.183383955944009
aF6.270823893753914
aF7.858263831572913
aF7.045703769383181
aF10.633143707209456
aF8.42058364501463
aF7.208023582823444
aF8.395463520640988
aF13.282903458471992
aF6.870343396261887
aF7.657783334077976
aF8.04522327189261
aF7.832663209705061
aF7.120103147515692
aF6.507543085326688
aF7.494983023143504
aF6.682422960953772
aF6.469862898766223
aF6.857302836580857
aF10.444742774407132
aF9.032182712215217
aF8.819622650027668
aF9.507062587843393
aF7.09450252564784
aF7.581942463462838
aF6.869382401273469
aF7.356822339088467
aF6.94426227690019
aF11.031702214728284
aF6.819142152526183
aF7.106582090340453
aF11.194022028168547
aF8.481461965971903
aF7.768901903782535
aF7.756341841595713
aF6.543781779404526
aF17.331221717256994
aF13.718661655057076
aF7.206101592846608
aF6.693541530657967
aF8.980981468479513
aF6.968421406285415
aF10.355861344110963
aF9.343301281920503
aF7.330741219726406
aF7.818181157541403
aF15.805621095383685
aF7.593061033167032
aF8.08050097098203
aF10.267940908803212
aF7.855380846607659
aF7.7428207844204735
aF8.73026072223729
aF7.517700660046103
aF12.105140597876016
aF7.392580535672096
aF6.580020473482364
aF35.9674604114025
aF27.85490034918621
aF22.542340286980107
aF16.529780224771457
aF9.01722016255735
aF6.204660100360343
aF14.192100038202625
aF13.57953997601362
aF9.966979913813702
aF7.954419851619605
aF18.64185978947171
aF10.129299727253965
aF9.616739665065325
aF11.504179602885415
aF7.791619540685133
aF6.67905947849431
aF6.766499416307852
aF6.553939354120303
aF6.641379291933845
aF7.528819229750297
aF6.216259167558746
aF10.403699105387204
aF6.691139043186922
aF10.07857898101247
aF8.766018918820919
aF6.153458856624638
aF6.840898794440363
aF6.428338732252087
aF9.015778670074724
aF12.703218607901363
aF6.0906585456905304
aF8.47809848351244
aF7.46553842132198
aF18.452978359175177
aF9.540418296955977
aF9.827858234770247
aF8.515298172578696
aF7.402738110387872
aF7.290178048200687
aF16.777617986048426
aF8.865057923832865
aF8.852497861646043
aF6.8399377994519455
aF15.527377737296774
aF6.914817675078666
aF6.4022576128900255
aF8.989697550712663
aF7.7771374885214755
aF7.864577426335018
aF7.452017364146741
aF14.639457301986113
aF6.926897239771279
aF6.314337177582274
aF6.50177711539618
aF7.289217053212269
aF14.376656991051277
aF6.564096928836079
aF8.251536866655442
aF7.938976804467529
aF9.926416742287984
aF9.31385668009898
aF8.001296617907428
aF6.48873655571515
aF6.7761764935294195
aF6.863616431342962
aF10.151056369168145
aF6.138496306966772
aF6.225936244780314
aF6.313376182593856
aF10.300816120421587
aF7.5882560582249425
aF9.475695996045033
aF10.663135933862577
aF6.950575871662295
aF7.038015809475837
aF6.025455747285378
aF12.312895685121475
aF6.800335622914645
aF11.587775560745285
aF6.275215498539183
aF13.36265543637819
aF9.850095374178636
aF6.837535311980901
aF8.224975249799172
aF6.212415187605075
aF10.199855125432805
aF6.487295063232523
aF7.674735001050067
aF26.76217493893273
aF18.64961487671644
aF12.137054814505973
aF6.924494752300234
aF11.31193469012942
aF10.999374627941506
aF12.98681456576196
aF6.974254503553311
aF24.461694441430154
aF15.849134379212046
aF8.636574316999031
aF9.724014254816211
aF7.311454192620658
aF8.498894130438202
aF7.786334068248834
aF8.173774006063468
aF6.361213943870098
aF14.148653881711653
aF11.636093819515736
aF9.623533757321638
aF10.110973695136636
aF9.698413632948359
aF6.6858535707506235
aF18.47329350860673
aF12.16073344639699
aF12.848173384212714
aF21.835613322058634
aF15.523053259848894
aF7.910493197634423
aF10.097933135455605
aF10.285373073269511
aF7.572813011072867
aF9.860252948894413
aF6.7476928866963135
aF6.035132824506945
aF8.222572762328127
aF6.110012700133666
aF12.897452637971583
aF17.88489257580295
aF12.272332513595757
aF6.759772451388926
aF12.347212389222477
aF7.234652327017102
aF10.022092264840467
aF7.109532202643095
aF16.896972140491926
aF11.78441207828655
aF6.971852016082266
aF8.359291953900538
aF7.64673189171117
aF13.934171829547267
aF9.221611767343347
aF10.609051705161619
aF12.296491642980982
aF10.083931580786157
aF9.67137151859788
aF13.858811456426338
aF9.146251394222418
aF13.633691332051967
aF8.821131269847683
aF7.808571207657224
aF6.6960111454664
aF7.883451083283944
aF7.570891021096031
aF7.158330958907754
aF24.14577089678278
aF15.433210834564306
aF8.520650772352383
aF6.808090710159377
aF8.195530647977648
aF19.182970585830844
aF14.270410523626197
aF11.057850461427734
aF7.545290399228179
aF6.132730337036264
aF6.420170274850534
aF6.4076102126637124
aF6.195050150476163
aF8.482490088297709
aF8.26993002611016
aF13.257369963941528
aF8.944809901739063
aF7.332249839546421
aF6.7196897773574165
aF8.207129715176052
aF7.194569652985592
aF9.78200959080823
aF18.169449528651967
aF13.25688946644732
aF10.644329404251039
aF11.2317693420664
aF9.219209279872302
aF9.606649217686936
aF8.394089155495749
aF6.481529093302015
aF6.4689690311151935
aF7.856408968933465
aF14.543848906771018
aF7.331288844558003
aF6.118728782366816
aF6.506168720181449
aF34.1936086580954
aF25.881048595878383
aF20.26848853367119
aF14.25592847146254
aF6.543368409247705
aF6.630808347061247
aF10.318248284887886
aF7.205688222689787
aF7.393128160503693
aF9.98056809832633
aF8.268008036133324
aF12.855447973963237
aF8.042887911758953
aF9.330327849576861
aF8.217767787386038
aF10.805207725208675
aF11.092647663022944
aF7.180087600821935
aF11.967527538652575
aF6.954967476447564
aF6.142407414257832
aF8.72984735208047
aF10.817287289901287
aF7.804727227703552
aF7.092167165514184
aF7.479607103328817
aF7.667047041142723
aF6.254486978950808
aF6.941926916766533
aF6.929366854579712
aF7.316806792394345
aF11.104246730221348
aF9.891686668030161
aF7.279126605833881
aF6.866566543645604
aF6.754006481458418
aF6.341446419270142
aF6.528886357084048
aF7.116326294899409
aF6.803766232711496
aF8.091206170529404
aF6.478646108336761
aF8.266086046156488
aF19.853525984011867
aF13.040965921800307
aF6.82840585959093
aF6.8158457974041085
aF9.403285735226746
aF9.190725673039196
aF7.778165610847282
aF7.5656055486597324
aF13.153045486493284
aF6.9404854242839065
aF7.1279253620978125
aF7.115365299910991
aF5.902805237719804
aF7.590245175539167
aF6.3776851133479795
aF13.565125051187351
aF7.352564988977974
aF12.440004926809706
aF7.82744486460615
aF6.8148848024156905
aF8.40232474023469
aF8.289764678047504
aF6.8772046158555895
aF11.964644553687322
aF13.452084491505957
aF31.539524429384983
aF23.726964367169785
aF21.714404304975687
aF18.201844242776133
aF10.889284180562754
aF6.476724118359925
aF7.5641640561771055
aF6.051603993984827
aF6.9390439318012795
aF7.6264838696170045
aF8.113923807432002
aF14.601363745268827
aF7.888803683057631
aF11.876243620885361
aF7.463683558682533
aF8.151123496498258
aF7.4385634343088896
aF8.226003372124978
aF7.913443309937065
aF10.800883247760794
aF8.188323185564514
aF8.875763123380239
aF6.56320306118505
aF8.750642999006232
aF13.438082936836508
aF9.82552287463659
aF15.512962812470505
aF11.400402750268768
aF8.687842688072124
aF9.875282625889668
aF8.962722563699572
aF23.750162501566592
aF26.63760243939032
aF18.925042377175487
aF13.312482314968292
aF10.299922252770557
aF7.387362190573185
aF7.174802128385636
aF12.362242066217732
aF20.54968200406074
aF13.93712194184991
aF10.624561879651083
aF10.112001817462442
aF8.999441755271619
aF7.086881693077885
aF6.774321630889972
aF8.06176156870788
aF7.449201506518875
aF7.436641444332054
aF7.324081382144868
aF7.011521319956955
aF12.998961257791962
aF7.086401195583676
aF6.4738411333946715
aF6.6612810712085775
aF6.74872100902212
aF18.93616094687968
aF14.023600884675034
aF8.611040822468567
aF6.198480760273014
aF8.185920698093469
aF6.67336063590119
aF11.360800573731467
aF6.648240511527547
aF6.23568044933927
aF7.523120387157178
aF12.810560324989638
aF8.498000262787173
aF6.585440200593439
aF10.07288013841935
aF9.360320076229982
aF8.347760014039523
aF9.435199951856703
aF6.522639889659331
aF22.510079827530717
aF15.397519765318066
aF7.684959703103232
aF7.072399640914227
aF11.259839578742685
aF7.147279516540948
aF6.234719454350852
aF6.522159392165122
aF7.009599329980119
aF8.89703926780021
aF9.384479205615207
aF6.171919143416744
aF11.759359081250295
aF6.246799019043465
aF6.634238956858098
aF8.621678894678553
aF8.709118832492095
aF7.196558770299816
aF6.583998708110812
aF7.371438645926901
aF7.658878583741171
aF6.846318521551439
aF7.133758459365708
aF9.121198397186163
aF16.308638335025535
aF11.49607827282125
aF6.283518210615512
aF8.37095814843633
aF9.358398086253146
aF6.145838024054683
aF7.533277961872955
aF10.820717899698138
aF6.608157837496037
aF6.295597775308124
aF8.983037713131125
aF8.170477650941393
aF10.557917588763303
aF7.145357526564112
aF7.932797464380201
aF7.920237402193379
aF7.107677340003647
aF6.095117277813188
aF9.382557215638371
aF12.469997153462828
aF6.157437091253087
aF7.244877029070267
aF7.432316966884173
aF15.919756904728274
aF8.007196842512712
aF6.294636780319706
aF12.282076718154713
aF6.669516655947518
aF6.556956593760333
aF21.54439653162808
aF22.83183646944599
aF14.519276407228972
aF9.106716345022505
aF7.394156282829499
aF6.781596220640495
aF23.869036158515883
aF15.65647609629923
aF12.143916034099675
aF7.431355971895755
aF10.418795909719847
aF11.006235847535208
aF7.893675785337109
aF7.581115723149196
aF7.5685556609623745
aF11.15599559878865
aF7.743435536589459
aF8.030875474403729
aF6.618315412211814
aF6.905755350026084
aF13.993195287865092
aF10.080635225664082
aF7.668075163468529
aF19.455515101093624
aF13.342955038828222
aF9.93039497652353
aF8.617834914188279
aF9.505274851821014
aF6.192714789514866
aF6.8801547271505115
aF6.567594664800708
aF12.155034602365049
aF6.742474540089461
aF19.329914477551938
aF13.117354415287991
aF6.4047943530313205
aF6.392234290677152
aF7.879674228301155
aF6.26711416597027
aF9.854554103563714
aF6.441994041259022
aF6.129433978909219
aF8.016873916527402
aF7.10431385418633
aF8.691753791808878
aF22.279193729256804
aF14.366633667017595
aF8.554073604747828
aF7.041513542415487
aF7.128953480059863
aF7.816393417695508
aF9.503833355316601
aF6.991273292998812
aF8.77871323061845
aF6.566153168296296
aF6.853593105937762
aF20.541033043384232
aF12.828472981142113
aF8.515912918850518
aF6.403352856526908
aF14.690792794051958
aF7.378232731804019
aF11.665672669387277
aF7.053112607100047
aF6.5405525447531545
aF6.7279924823960755
aF8.01543242002299
aF8.80287235765718
aF10.790312295273907
aF10.877752232918283
aF6.365192170629598
aF8.052632108250691
aF8.340072045892157
aF16.727511983415752
aF8.414951921182364
aF10.402391858799092
aF11.889831796423096
aF6.8772717341416865
aF6.164711671797704
aF6.752151609434804
aF6.339591547086457
aF6.227031484733743
aF7.214471422365023
aF8.201911359996302
aF9.189351297627582
aF11.176791235244309
aF6.264231172961445
aF10.651671110543248
aF8.939111048213817
aF7.5265509858800215
aF11.013990923474921
aF17.101430861031986
aF10.588870798772405
aF6.07631073648372
aF7.463750674109178
aF6.5511906117681065
aF6.438630549415393
aF18.726070486882236
aF13.913510424597916
aF11.200950362283038
aF10.188390299943421
aF9.07583023760526
aF36.763270174848
aF37.05071011248947
aF32.63815005019933
aF24.825589987958665
aF19.613029925680166
aF11.900469863438047
aF8.887909801127535
aF9.475349738764635
aF7.162789676443936
aF6.3502296141014085
aF6.33766955174724
aF8.725109489358147
aF9.212549426996702
aF9.599989364636713
aF6.5874293023262
aF9.774869239925465
aF7.862309177598945
aF6.549749115263694
aF10.437189052852773
aF8.024628990533529
aF9.212068928161898
aF6.899508865841199
aF6.186948803497216
aF8.674388741106668
aF6.461828678784514
aF6.54926861642889
aF8.436708554047073
aF6.224148491724918
aF7.011588429359108
aF7.799028366993298
aF7.986468304636219
aF15.973908242165635
aF13.861348179842025
aF6.248788117598451
aF13.536228055138054
aF9.423667992843548
aF7.111107930522849
aF8.498547868148307
aF6.285987805826153
aF7.273427743457432
aF7.560867681098898
aF8.148307618735998
aF7.835747556386195
aF6.323187494053855
aF6.61062743169532
aF6.1980673693469726
aF11.28550730691859
aF6.972947244626994
aF6.360387182281556
aF8.747827119892463
aF7.035267057563033
aF7.3227069952044985
aF7.410146932848875
aF9.197586870468513
aF7.285026808141993
aF9.572466745754355
aF7.459906683430745
aF7.847346621070756
aF6.834786558731139
aF6.2222264963857015
aF20.609666433821985
aF22.997106371432892
aF15.584546309186408
aF7.771986246945744
aF8.559426184579934
aF6.546866122254869
aF6.5343060599007
aF7.52174599753198
aF7.109185935183632
aF8.096625872814911
aF6.384065810485481
aF8.071505748106574
aF8.15894568575095
aF6.846385623415699
aF10.933825561001868
aF9.021265498675348
aF12.308705436273158
aF11.796145373926265
aF11.383585311577917
aF6.471025249295053
aF8.65846518690887
aF8.545905124556157
aF13.333345062132139
aF8.420784999849275
aF6.40822493752421
aF7.095664875159855
aF12.283104812730016
aF8.070544750436966
aF7.457984688091528
aF6.445424625751912
aF6.432864563397743
aF6.220304501046485
aF13.907744438580266
aF13.09518437623774
aF6.982624313972337
aF8.970064251589065
aF9.157504189231986
aF11.144944126848713
aF6.832384064557118
aF6.219824002211681
aF11.907263939774566
aF7.79470387748006
aF13.882143815037125
aF10.869583752726612
aF8.257023690410279
aF8.64446362805029
aF31.331903565365792
aF28.11934350305819
aF27.70678344070984
aF18.994223378482275
aF11.281663316240156
aF11.269103253885987
aF8.15654319157693
aF8.94398312921112
aF10.731423066830757
aF6.318863004540617
aF6.906302942177717
aF7.793742879810452
aF7.281182817463559
aF8.768622755087563
aF7.956062692745036
aF19.44350263022352
aF20.63094256785189
aF12.91838250560977
aF7.8058224433298165
aF11.093262380927627
aF6.480702318640397
aF8.268142256260035
aF8.055582193908776
aF20.243022131377074
aF12.83046206913059
aF9.717902006821532
aF10.105341944461543
aF10.292781882104464
aF12.380221819719736
aF6.6676617574485135
aF9.555101695052144
aF6.5425416327416315
aF8.529981570358359
aF8.117421508010011
aF7.504861445664574
aF8.192301383300219
aF17.079741320816538
aF9.267181258575874
aF6.654621196259541
aF7.442061133893731
aF7.329501071541017
aF8.316941009172297
aF7.0043809468370455
aF8.09182088446687
aF15.079260822010838
aF6.76670075977745
aF8.954140697391267
aF8.241580635047285
aF10.429020572661102
aF8.116460510340403
aF6.603900448008062
aF11.891340385576768
aF7.678780323283718
aF7.166220260936825
aF8.453660198563739
aF7.141100136228488
aF8.228540073858312
aF12.91598001143575
aF7.803419949155796
aF9.2908598867798
aF6.578299824464921
aF6.665739762109297
aF7.5531796997420315
aF8.7406196373704
aF9.52805957500459
aF6.715499512691167
aF6.902939450334088
aF13.690379387880967
aF6.677819325628661
aF7.965259263255575
aF10.552699200863572
aF10.240139138513769
aF6.8275790762090764
aF8.51501901383017
aF6.502458951505105
aF13.089898889054894
aF12.077338826715277
aF6.864778764436778
aF6.752218702084065
aF12.63965863964404
aF7.027098577371362
aF7.514538515009917
aF7.301978452658659
aF15.089418390190986
aF7.776858327943046
aF7.264298265596153
aF8.451738203224522
aF22.639178140663716
aF16.82661807839395
aF13.914058016081981
aF7.5014979538209445
aF8.18893789145659
aF6.676377829124249
aF12.763817766681314
aF6.751257704414456
aF15.038697641939507
aF8.226137579684291
aF12.813577517263184
aF7.101017454991961
aF6.788457392642158
aF7.175897330282169
aF13.263337267839233
aF6.450777205584018
aF7.8382171432094765
aF10.525657080816018
aF9.213097018480767
aF7.500536956151336
aF7.287976893800078
aF16.47541683131203
aF7.962856769081554
aF10.350296706692461
aF6.037736644400866
aF7.725176582021959
aF7.312616519673611
aF7.600056457315077
aF9.887496394927439
aF6.874936332616926
aF7.2623762702569366
aF15.249816207786353
aF11.037256145493302
aF10.224696083150775
aF7.5121360208358965
aF15.199575958369678
aF34.88701589572884
aF27.474455833482352
aF19.361895771246054
aF12.249335708995204
aF11.836775646646856
aF7.524215584355261
aF6.311655522018555
aF8.399095459633827
aF7.5865353972913
aF10.67397533489202
aF8.861415272564045
aF6.448855210244801
aF9.036295147852798
aF6.523735085535009
aF6.51117502318084
aF9.498614960783016
aF10.38605489841575
aF6.1734948361227
aF9.560934773719055
aF7.048374711401266
aF6.735814649051463
aF9.32325458665946
aF15.210694524219434
aF19.198134461807058
aF18.9855743994558
aF10.473014337225322
aF6.260454274932272
aF6.147894212579558
aF13.43533415011916
aF6.122774087871221
aF7.31021402549959
aF7.197653963146877
aF6.9850939007956185
aF9.67253383840216
aF6.359973776096012
aF9.847413713690912
aF9.634853651339654
aF7.4222935890174995
aF6.509733526676428
aF7.197173464312073
aF8.184613401943352
aF6.272053339616832
aF5.959493277267029
aF8.146933214880846
aF8.234373152525222
aF6.421813090197247
aF7.609253027825616
aF9.196692965448165
aF6.584132903131831
aF10.07157284072673
aF9.059012778387114
aF15.146452715944179
aF6.833892653710791
aF18.42133259118782
aF9.808772528958798
aF6.496212466652651
aF7.48365240428393
aF8.871092341909389
aF7.458532279575593
aF8.045972217212693
aF8.333412154854159
aF20.120852092328278
aF11.80829203009489
aF6.195731967822212
aF8.18317190543894
aF22.870611842870858
aF15.258051780627284
aF10.14549171834733
aF7.232931656035362
aF10.220371593637537
aF8.807811531303742
aF7.49525146896849
aF9.682691406582308
aF10.470131344216497
aF6.557571281919081
aF6.845011219560547
aF14.13245115710015
aF6.519891094856575
aF8.107331032479124
aF6.394770970149693
aF13.382210907693661
aF6.86965084543408
aF6.657090783082822
aF8.844530720696639
aF11.131970658309001
aF7.019410596014495
aF8.006850533645775
aF11.39429047124213
aF7.081730408950534
aF9.369170346562896
aF17.256610284093767
aF8.74405022186329
aF7.931490159520763
aF7.118930097178236
aF7.306370034821157
aF9.093809972440795
aF6.481249910124461
aF10.068689847717906
aF6.556129785414669
aF6.443569723061955
aF8.231009660681593
aF7.318449598340521
aF9.805889535949973
aF6.79332947363946
aF6.880769411283836
aF8.56820934890493
aF7.055649286572589
aF8.943089224190771
aF7.030529161864251
aF8.41796909948971
aF6.3054090371661005
aF22.2928489745791
aF23.780288912203105
aF16.96772884994789
aF15.155168787619914
aF7.54260872537634
aF14.930048662914487
aF8.51748860065345
aF7.904928538308013
aF6.792368475969852
aF7.0798084136113175
aF14.967248351142189
aF10.454688288853504
aF9.342128226515342
aF7.129568164193188
aF9.41700810180555
aF8.304448039467388
aF10.59188797707975
aF9.2793279147445
aF6.9667678524238
aF6.754207790072542
aF6.441647727722739
aF8.229087665342377
aF6.016527603020222
aF8.603967540628219
aF7.391407478291512
aF7.078847415941709
aF10.966287353530788
aF8.653727291210089
aF7.141167228877748
aF6.828607166527945
aF6.916047104172321
aF8.30348704179778
aF6.990926979462529
aF7.8783669170952635
aF7.665806854744005
aF8.253246792381105
aF11.140686729984736
aF6.828126667693141
aF7.315566605331696
aF6.10300654299499
aF7.890446480614628
aF9.077886418242997
aF14.265326355813158
aF7.552766293556488
aF17.5402062310568
aF13.12764616876666
aF8.015086106486706
aF10.802526044091792
aF10.589965981740534
aF7.577405919430021
aF9.464845857048203
aF9.252285794696945
aF9.839725732334045
aF13.927165669920214
aF6.914605607667909
aF6.102045545325382
aF6.489485482965392
aF10.376925420554471
aF6.464365358257055
aF7.551805295886879
aF13.439245233446854
aF7.626685171177087
aF8.914125108804
aF6.901565046478936
aF9.789004984082567
aF19.476444921587245
aF12.06388485934076
aF9.95132479701715
aF7.0387647347051825
aF7.7262046723408275
aF8.513644609975017
aF7.301084547638311
aF7.888524485275411
aF16.075964422801917
aF7.463404360572895
aF7.95084429821145
aF6.4382842358791095
aF7.225724173513299
aF13.113164111073274
aF8.500604048786045
aF8.58804398643042
aF6.575483924105356
aF7.462923861738091
aF7.550363799382467
aF7.637803737026843
aF8.725243674656667
aF11.912683612255933
aF6.800123549975979
aF7.0875634876174445
aF10.375003425215255
aF7.9624433628960105
aF9.34988330052147
aF6.83732323820368
aF9.424763175811677
aF6.312203113502619
aF21.49964305092726
aF12.787082988699694
aF7.87452292641683
aF8.66196286405102
aF13.549402801625547
aF7.236842739363055
aF8.824282676985604
aF17.711722614501923
aF10.099162552258349
aF8.086602489933284
aF8.874042427567474
aF10.661482365187112
aF8.648922302862047
aF6.836362240534072
aF7.723802178166807
aF12.711242115739878
aF6.0986820534817525
aF6.786121991117398
aF7.073561928758863
aF8.961001866377046
aF28.14844180374348
aF30.13588174136021
aF45.623321678780485
aF37.81076161653982
aF31.598201554275875
aF34.885641491873685
aF26.67308142963884
aF18.760521367399633
aF10.047961305172066
aF18.735401242691296
aF10.422841180457908
aF6.410281118161947
aF8.09772105578304
aF6.985160993444879
aF7.272600931086345
aF8.460040868714714
aF7.647480806372187
aF19.53492074384485
aF13.522360681577993
aF6.309800619328598
aF10.697240556910401
aF7.984680494595523
aF7.872120432242809
aF9.359560369866813
aF12.147000307471899
aF6.2344402452035865
aF8.021880182823224
aF6.6093201204894285
aF7.396760058123618
aF7.084199995773815
aF10.27163993337308
aF10.059079871021822
aF9.34651980867784
aF7.833959746345499
aF7.121399684001517
aF6.808839621651714
aF6.396279559303366
aF22.983719496707636
aF14.871159434471338
aF8.458599372210301
aF6.746039309880871
aF9.233479247490322
aF6.820919185171078
aF7.008359122813999
aF7.795799060448189
aF8.38323899808529
aF6.870678935752949
aF6.458118873404601
aF6.3455588110518875
aF7.832998748675891
aF10.220438686286798
aF10.307878623931174
aF10.19531856157846
aF8.48275849924903
aF6.7701984369196
aF9.157638374530507
aF7.545078312199621
aF6.23251824986437
aF6.6199581875043805
aF6.307398125154577
aF14.794838062676718
aF7.6822780004258675
aF12.769717937997484
aF8.257157875708799
aF7.444597813366272
aF7.732037751007738
aF20.919477688461484
aF14.406917626201903
aF8.89435756392777
aF7.481797501593974
aF7.169237439244171
aF8.956677376863809
aF6.24411731454893
aF9.131557252152561
aF7.118997189827496
aF12.406437127396202
aF6.393877065129345
aF9.081317002735886
aF6.6687569404166425
aF7.156196878055198
aF8.343636815683567
aF6.631076753354137
aF6.418516691002878
aF8.305956628621061
aF7.593396566277079
aF6.080836503944738
aF6.368276441586204
aF9.55571637918547
aF6.743156316872046
aF10.1305962544684
aF14.318036192053114
aF6.405476129813906
aF6.592916067456827
aF13.28035600500516
aF9.06779594271211
aF16.5552358802488
aF11.042675817974668
aF9.930115755636507
aF7.017555693324539
aF10.204995630923804
aF6.692435568620567
aF6.1798755062736745
aF6.86731544390932
aF7.054755381552241
aF6.2421953192097135
aF6.9296352568453585
aF6.417075194498466
aF8.104515132119559
aF10.391955069731921
aF6.17939500743887
aF7.966834945058508
aF6.654274882723257
aF6.841714820366178
aF9.229154757977085
aF11.116594695595268
aF7.904034633287665
aF7.191474570943683
aF17.978914508432354
aF12.066354446164041
aF6.353794383892819
aF8.241234321511001
aF14.028674259072432
aF8.016114196805574
aF8.90355413443831
aF9.590994072073954
aF6.278434009767807
aF17.5658739472492
aF10.253313885001262
aF6.240753822705301
aF13.128193760250724
aF7.515633697978046
aF8.80307363560496
aF5.990513573291537
aF8.977953510893713
aF11.16539344850753
aF11.55283338614754
aF6.140273323871952
aF7.027713261504687
aF8.415153199130145
aF7.702593136786163
aF6.590033074448002
aF17.877473011929396
aF9.764912949693098
aF11.452352887314191
aF8.439792825003678
aF8.6272327626466
aF7.2146727003128035
aF22.90211263773017
aF14.589552575496782
aF6.576992513259029
aF10.964432450840832
aF73.35187238757862
aF72.5393123252361
aF65.02675226299107
aF57.11419220075186
aF49.40163213850974
aF43.28907207624434
aF34.876512014012405
aF27.46395195176592
aF21.7513918894947
aF14.538831827245303
aF11.026271764942067
aF6.413711702654837
aF6.901151640293392
aF6.788591577940679
aF10.376031515534123
aF6.363471453238162
aF8.450911390853435
aF9.938351328477438
aF9.72579126612618
aF7.61323120380257
aF7.300671141452767
aF9.488111079066584
aF7.675551016738609
aF7.262990954390261
aF6.350430892049189
aF6.137870829697931
aF7.425310767324845
aF7.312750704972132
aF9.600190642584494
aF12.58763058018667
aF8.575070517890708
aF8.862510455532174
aF8.649950393180916
aF17.137390330703056
aF12.024830268423102
aF8.61227020611841
aF7.899710143774428
aF10.18715008138679
aF6.574590019085008
aF7.062029956723563
aF6.549469894376671
aF6.736909832019592
aF16.724349769519904
aF14.31178970720066
aF13.699229644855222
aF8.686669582573813
aF6.874109520245838
aF7.061549457888759
aF6.248989395546232
aF6.136429333193519
aF8.523869270804425
aF6.91130920847354
aF7.098749146116461
aF13.586189083667705
aF9.773629021368833
aF8.961068959026306
aF6.448508896708518
aF8.73594883432088
aF6.62338877199727
aF6.610828709643101
aF6.398268647291843
aF7.185708584926033
aF20.873148522372503
aF12.060588460146391
aF7.148028397863527
aF7.035468335510814
aF11.022908273098437
aF7.110348210801021
aF8.29778814842939
aF7.485228086086863
aF6.372668023748702
aF7.560107961377071
aF6.747547899034544
aF8.534987836654182
aF11.522427774256357
aF6.809867711970583
aF8.097307649597496
aF6.6847475872637006
aF7.272187524900801
aF7.459627462543722
aF10.947067400138621
aF12.834507337756804
aF7.821947275475395
aF6.909387213134323
aF7.9968271507641475
aF11.584267088357592
aF15.371707025948126
aF6.759146963719104
aF6.6465869013663905
aF12.534026838926366
aF9.321466776618763
aF20.40890671410307
aF13.396346651850763
aF6.883786589591182
aF7.7712265272239165
aF11.858666464810085
aF6.646106402531586
aF10.43354634012212
aF12.620986277735938
aF9.70842621542397
aF6.695866153113457
aF12.583306090673432
aF7.370746028394933
aF8.358185966026213
aF8.145625903674954
aF16.033065841205826
aF8.020505778968072
aF9.107945716597897
aF8.895385654246638
aF8.88282559189247
aF6.77026552956886
aF6.457705467219057
aF8.245145404838695
aF15.232585342382663
aF7.8200252801361785
aF12.80746521770925
aF6.994905155439483
aF9.082345093054755
aF8.769785030704952
aF7.057224968375522
aF6.944664906022808
aF6.93210484366864
aF6.919544781314471
aF6.506984718966123
aF13.094424656515912
aF7.981864594235958
aF9.369304531861417
aF6.356744469550904
aF8.444184407166176
aF6.831624344835291
aF6.419064282486943
aF9.906504220081843
aF8.193944157752412
aF6.281384095425892
aF6.868824033062992
aF6.656263970711734
aF6.343703908361931
aF6.231143846009218
aF6.318583783653594
aF7.106023721287784
aF10.993463658876863
aF21.980903596362623
aF17.868343534068117
aF10.055783471827453
aF6.743223409521306
aF6.7306633471671375
aF8.018103284794051
aF6.305543222464621
aF5.992983160114818
aF11.780423097676248
aF8.567863035368646
aF6.755302973040671
aF18.642742910513334
aF10.730182848274126
aF7.017622785973799
aF12.60506272353814
aF6.1925026612771035
aF15.179942598791968
aF9.16738253652511
aF6.054822474216053
aF7.242262411844422
aF6.629702349498984
aF12.51714228705896
aF7.70458222477464
aF10.092022162385547
aF10.479462100025557
aF9.46690203768594
aF6.454341975375428
aF7.141781913011073
aF7.829221850646718
aF8.416661788283818
aF7.804101725938381
aF8.891541663568205
aF6.278981601251871
aF7.266421538883151
aF6.153861476544989
aF12.641301414096233
aF7.028741351823555
aF17.216181289320957
aF10.703621227061376
aF7.791061164749408
aF11.578501102339942
aF14.765941039939207
aF7.953380977683992
aF6.1408209153560165
aF7.528260852981475
aF11.015700790576375
aF7.503140728273138
aF6.8905806659277005
aF6.278020603582263
aF7.7654605412062665
aF7.152900478860829
aF6.940340416509571
aF7.427780354148126
aF6.515220291807054
aF7.1026602294441545
aF10.09010016704633
aF6.177540104748914
aF8.264980042364186
aF7.952419980014383
aF10.33985991762529
aF11.927299855247838
aF6.71473979296934
aF6.802179730613716
aF6.789619668259547
aF7.577059605893737
aF11.364499543484271
aF6.951939481194131
aF12.539379418758472
aF16.526819356346095
aF9.014259294101066
aF7.401699231770181
aF9.489139169385453
aF16.576579106927966
aF8.464019044691668
aF11.551458982292388
aF9.938898919961503
aF8.226338857632072
aF16.413778795158578
aF8.701218732916459
aF15.588658670461882
aF8.076098608216853
aF14.863538545763731
aF8.15097848350706
aF7.738418421158713
aF8.225858358797268
aF6.413298296469293
aF10.300738234058372
aF13.888178171651816
aF8.875618109370407
aF7.963058047029335
aF7.850497984676622
aF6.237937922345736
aF9.325377859946457
aF12.012817797552998
aF10.600257735219202
aF7.687697672907234
aF7.77513761055161
aF8.36257754818871
aF15.550017485729768
aF6.737457423503656
aF6.624897361150943
aF6.11233729880405
aF9.59977723639895
aF7.087217174081161
aF10.77465711167315
aF7.6620970493640925
aF7.8495369870070135
aF13.436976924571354
aF10.524416862259386
aF6.911856799957604
aF14.999296737485565
aF8.586736675224529
aF8.474176612871815
aF7.261616550535109
aF6.349056488194037
aF6.536496425836958
aF6.723936363479879
aF8.211376301103883
aF12.89881623868132
aF7.886256176399911
aF8.273696114039922
aF6.061136051717767
aF7.048575989349047
aF8.33601592697596
aF6.723455864645075
aF6.410895802295272
aF8.498335739910544
aF9.285775677544734
aF6.373215615232766
aF9.660655552830576
aF7.148095490512787
aF9.335535428126605
aF6.822975365808816
aF10.910415303394984
aF8.597855241074285
aF6.485295178750675
aF11.572735116322292
aF6.2601750540452485
aF7.047614991679438
aF27.03505492903423
aF29.22249486664805
aF22.1099348043972
aF16.597374742123066
aF8.284814679889678
aF16.672254617413273
aF8.359694555179885
aF9.44713449280971
aF10.03457443044681
aF7.8220143681246554
aF7.209454305779218
aF7.696894243417773
aF8.684334181049053
aF9.271774118686153
aF6.359214056374185
aF8.446653993989457
aF7.434093931649841
aF8.42153386928112
aF10.608973806894937
aF7.49641374458588
aF8.483853682217159
aF7.271293619880453
aF10.158733557484084
aF10.44617349512555
aF7.9336134328077605
aF14.32105337036046
aF7.908493308099423
aF7.895933245745255
aF14.883373183289223
aF10.070813121004903
aF6.4582530587031215
aF5.945692996356229
aF23.333132933748857
aF29.720572871301556
aF20.8080128090769
aF12.795452746839146
aF6.282892684579565
aF8.370332622194837
aF7.7577725598494
aF8.3452124974865
aF9.032652435122145
aF11.320092372734507
aF6.107532310456008
aF6.09497224810184
aF7.182412185731664
aF8.969852123351302
aF9.357292060991313
aF6.744731998674979
aF14.232171936211671
aF6.219611873973918
aF6.5070518116153835
aF11.99449174918118
aF10.781931686844473
aF8.569371624522319
aF13.456811562096846
aF11.044251499777602
aF6.931691437483096
aF8.919131375099823
aF8.106571312757296
aF6.5940112504249555
aF7.2814511880606005
aF8.66889112568606
aF6.55633106336245
aF6.543771001008281
aF10.531210938595905
aF8.018650876278116
aF7.106090813937044
aF6.4935307515916065
aF6.580970689235983
aF11.168410626814875
aF9.955850564478169
aF6.943290502167656
aF7.330730439807667
aF6.718170377462229
aF6.805610315106605
aF6.393050252758258
aF7.980490190380806
aF7.567930128032458
aF8.055370065671013
aF6.742810003335762
aF9.430249940942304
aF11.517689878557576
aF6.105129816281988
aF6.892569753916177
aF6.580009691566374
aF7.267449629202019
aF6.3548895668609475
aF9.542329504460213
aF7.629769442133693
aF7.717209379778069
aF9.604649317396252
aF10.592089255027531
aF7.379529192719929
aF9.766969130330835
aF8.654409067992674
aF7.241849005658878
aF7.729288943297433
aF6.616728880959272
aF7.0041688185992825
aF13.291608756153437
aF17.579048693736695
aF10.76648863148148
aF7.553928569173877
aF6.841368506829895
aF17.228808444324386
aF8.616248382095364
aF6.00368831977903
aF7.591128257401579
aF20.778568194855325
aF14.266008132595744
aF10.353448070298327
aF12.740888007909234
aF6.928327945639467
aF6.415767883292574
aF8.703207820904936
aF9.99064775853185
aF8.678087696196599
aF27.36552763357031
aF18.852967571339832
aF11.240407509096258
aF6.9278474468046625
aF10.215287384402473
aF8.602727322071587
aF8.19016725972324
aF8.77760719736034
aF7.765047135020723
aF6.9524870726781955
aF7.339927010318206
aF9.627366947930568
aF8.714806885589496
aF9.302246823226596
aF9.289686760872428
aF6.777126698554639
aF7.264566636193194
aF7.052006573841936
aF8.639446511464485
aF9.226886449101585
aF11.114326386719767
aF16.201766324291384
aF10.88920626201434
aF7.176646199714014
aF6.764086137365666
aF7.951526074994035
aF7.238966012650053
aF6.226405950310436
aF11.713845887876232
aF7.801285825578816
aF7.288725763231923
aF6.276165700892307
aF8.663605638503213
aF13.851045576073375
aF14.13848551371484
aF10.625925451411604
aF6.813365389112732
aF8.200805326738191
aF8.188245264384022
aF7.67568520203713
aF10.463125139642216
aF6.750565077341889
aF29.938005014650116
aF31.525444952272665
aF23.012884890042187
aF19.90032482773313
aF12.687764765483735
aF14.775204703099007
aF6.462644640865619
aF6.750084578507085
aF9.837524516107806
aF8.387439937779526
aF17.174879875559327
aF10.862319813338914
aF6.949759751118535
aF6.437199688898204
aF9.12463962667708
aF10.712079564456019
aF6.699519502235276
aF6.686959440014306
aF8.674399377793236
aF11.761839315572104
aF8.149279253351324
aF7.03671919113043
aF6.324159128909514
aF19.411599066687813
aF15.199039004467068
aF6.886478942246583
aF12.373918880025315
aF10.96135881780441
aF7.34879875558363
aF7.536238693362861
aF10.523678631145174
aF18.01111856892851
aF12.598558506708912
aF10.185998444489996
aF17.673438382273332
aF9.16087832005303
aF8.548318257834524
aF8.135758195616063
aF12.523198133398694
aF6.51063807117896
aF8.798078008961113
aF6.48551794674222
aF9.672957884524578
aF7.360397822305686
aF7.247837760087293
aF11.335277697869856
aF7.422717635650599
aF7.910157573432343
aF7.497597511213883
aF7.685037448995558
aF7.172477386777075
aF6.759917324558501
aF7.047357262340142
aF6.0347972001214885
aF7.42223713790338
aF9.8096770756855
aF6.297117013466277
aF8.584556951248373
aF6.971996889029583
aF6.859436826811134
aF6.646876764592662
aF6.134316702374122
aF11.02175664015681
aF6.409196577937337
aF6.696636515718978
aF10.384076453501393
aF8.971516391282648
aF7.1589563290638125
aF7.246396266845409
aF7.733836204627096
aF9.321276142409033
aF6.108716080189879
aF18.996156017974386
aF11.383595955754231
aF12.771035893536123
aF8.258475831316673
aF16.04591576910002
aF9.033355706880002
aF6.820795644661075
aF8.108235582442944
aF12.295675520225473
aF7.283115458005909
aF7.770555395787596
aF6.757995333568942
aF15.445435271352494
aF7.032875209132158
aF6.420315146913595
aF6.207755084695123
aF6.69519502247681
aF7.28263496025852
aF6.270074898039866
aF11.357514835822599
aF7.644954773603331
aF15.932394711376674
aF7.01983464915611
aF8.007274586926542
aF8.094714524697793
aF10.482154462466951
aF14.669594400234473
aF6.457034338013273
aF8.844474275782432
aF8.431914213554137
aF6.719354151327025
aF7.106794089098003
aF8.194234026868344
aF7.481673964640322
aF12.569113902407025
aF6.756553840183642
aF8.043993777953801
aF7.531433715725598
aF6.41887365349794
aF59.606313591220896
aF52.09375352899906
aF43.88119346677786
aF47.36863340454602
aF41.75607334232245
aF38.343513280096886
aF31.93095321787405
aF25.4183931556513
aF17.605833093429737
aF11.293273031206809
aF15.080712968974694
aF8.468152906752039
aF7.655592844524108
aF7.843032782295268
aF6.73047272006761
aF11.11791265783495
aF7.205352595609838
aF8.19279253338027
aF13.380232471146883
aF6.367672408924591
aF7.255112346695114
aF6.842552284466819
aF9.629992222235614
aF12.817432160004046
aF8.904872097778934
aF7.992312035551095
aF10.67975197331998
aF6.567191911095051
aF8.354631848864756
aF6.842071786637462
aF7.429511724408258
aF9.116951662178053
aF12.604391599946211
aF12.491831537717644
aF7.77927147549326
aF6.6667114132656025
aF7.05415135103658
aF10.241591288805012
aF10.62903122657599
aF13.616471164344603
aF6.803911102122129
aF9.091351039891379
aF10.478790977661447
aF9.166230915433971
aF7.653670853206677
aF8.641110790977109
aF8.62855072874845
aF7.1159906665211565
aF7.503430604292134
aF6.590870542064295
aF6.178310479836
aF11.365750417602612
aF6.753190355378138
aF7.440630293148843
aF17.628070230910907
aF8.815510168690253
aF10.702950106459866
aF7.2903900442343
aF6.977829982005915
aF8.565269919775801
aF6.852709857548689
aF27.440149795301295
aF18.72758973308055
aF11.815029670858166
aF6.402469608634419
aF6.689909546405488
aF6.477349484177012
aF19.064789421936894
aF15.052229359711873
aF27.439669297471937
aF40.22710923523164
aF42.41454917300098
aF38.30198911077605
aF46.98942904853948
aF38.37686898631864
aF30.464308924097168
aF21.751748861876422
aF15.139188799653766
aF10.426628737429382
aF8.614068675202361
aF9.501508612972884
aF9.588948550744135
aF8.676388488516295
aF6.363828426289729
aF7.951268364059615
aF6.838708301831957
aF7.226148239602935
aF18.913588177363636
aF11.901028115141344
aF6.588468052917506
aF8.175907990687392
aF7.363347928459461
aF12.750787866225892
aF8.538227804001053
aF6.625667741774123
aF8.813107679543464
aF7.700547617315806
aF6.887987555087875
aF6.075427492859944
aF8.262867430629285
aF6.8503073684019
aF9.837747306170513
aF15.125187243937035
aF67.3126271816609
aF60.40006711943852
aF53.0875070572165
aF44.77494699499539
aF39.46238693277155
aF30.649826870550896
aF22.637266808329514
aF15.92470674610695
aF10.012146683883657
aF6.899586621657818
aF11.387026559425067
aF7.174466497200228
aF10.961906434968114
aF9.34934637274091
aF10.536786310511161
aF6.424226248286232
aF8.011666186056118
aF16.39910612381982
aF14.986546061592435
aF7.173985999370871
aF8.36142593714112
aF8.848865874912008
aF6.236305812685714
aF7.223745750456146
aF9.411185688225487
aF8.498625625997647
aF7.086065563770262
aF6.6735055015419675
aF7.460945439312582
aF7.048385377084287
aF6.435825314856174
aF6.123265252627789
aF7.010705190398312
aF6.198145128170381
aF7.185585065940813
aF6.373025003712883
aF16.560464941474947
aF8.947904879253201
aF9.535344817023997
aF8.522784754796248
aF9.51022469256668
aF9.597664630337931
aF8.185104568110546
aF14.872544505875794
aF10.659984443650956
aF7.0474243814255715
aF6.734864319197186
aF11.922304256963798
aF8.909744194737868
aF7.197184132510756
aF6.184624070283007
aF6.572064008053985
aF6.659503945825236
aF10.346943883593212
aF8.134383821366555
aF8.021823759137988
aF8.809263696908602
aF9.496703634679307
aF8.384143572451649
aF8.4715835102229
aF7.359023447995241
aF8.346463385765674
aF10.533903323535014
aF9.02134326130772
aF10.808783199077425
aF10.196223136849312
aF8.783663074621927
aF7.171103012394724
aF14.358542950159517
aF8.745982887935952
aF7.633422825708294
aF6.820862763480363
aF6.408302701252069
aF7.195742639022683
aF6.783182576794388
aF6.470622514566003
aF8.758062452335253
aF19.445502390096863
aF10.832942327876026
aF13.920382265644548
aF7.007822203422165
aF6.0952621411943255
aF8.282702078963666
aF8.970142016734371
aF16.957581954498437
aF8.44502189227751
aF7.5324618300496695
aF13.519901767815554
aF6.207341705593535
aF7.4947816433636945
aF8.882221581133763
aF8.769661518905195
aF6.957101456678174
aF7.744541394448788
aF9.631981332218402
aF10.01942126998938
aF8.706861207761904
aF10.094301145531972
aF7.181741083305951
aF6.269181021078111
aF10.956620958845178
aF8.144060896619067
aF7.331500834391136
aF10.21894077215984
aF6.1063807099349106
aF8.49382064770407
aF6.781260585476957
aF7.268700523247844
aF6.8561404610195495
aF6.343580398791346
aF9.731020336559595
aF6.018460274334302
aF6.805900212104916
aF7.093340149875985
aF13.880780087641142
aF9.06822002541685
aF6.555659963190465
aF6.343099900961988
aF12.730539838727509
aF10.61797977650076
aF10.505419714272193
aF6.092859652047537
aF7.480299589817605
aF11.867739527584945
aF6.455179465361198
aF9.342619403129902
aF8.930059340901607
aF10.017499278671949
aF11.904939216441562
aF18.892379154206537
aF11.579819091984518
aF6.567259029760407
aF6.754698967531567
aF12.242138905297907
aF6.029578843074887
aF6.617018780845683
aF10.104458718670685
aF6.891898656471312
aF7.079338594284309
aF9.266778532104581
aF7.654218469911029
aF9.841658407731302
aF7.529098345535203
aF7.016538283345653
aF6.903978221157558
aF6.491418158968372
aF7.978858096786098
aF8.666298034600914
aF6.853737972406634
aF13.141177910241822
aF6.628617848030444
aF6.816057785843441
aF6.603497723654982
aF8.290937661473436
aF10.878377599295163
aF7.565817537095427
aF6.553257474904058
aF6.6406974127166905
aF8.328137350535144
aF7.615577288344866
aF6.603017226153497
aF7.090457163967585
aF6.677897101778399
aF6.365337039589576
aF7.452776977405847
aF7.6402169152188435
aF9.227656853036933
aF15.915096790873577
aF8.302536728658197
aF9.789976666475923
aF11.377416604294012
aF8.064856542094276
aF11.252296479918186
aF8.73973641772136
aF6.527176355525626
aF13.014616293361541
aF7.602056231154165
aF10.289496168976257
aF6.476936106774701
aF6.864376044588425
aF7.451815982402877
aF8.939255920220603
aF8.926695858032872
aF10.614135795851325
aF6.601575733649042
aF8.289015671467496
aF10.676455609288496
aF14.46389554711459
aF6.551335484898118
aF13.438775422735489
aF6.226215360521564
aF6.413655298334561
aF11.201095236164292
aF8.088535173965283
aF22.575975111830303
aF13.863415049610921
aF9.950854987409002
aF6.938294925210357
aF9.025734863030266
aF37.61317480094658
aF28.9006147387272
aF20.688054676509637
aF13.875494614297168
aF9.162934552092338
aF10.250374489908609
aF8.43781442771433
aF9.425254365530236
aF14.612694303361422
aF8.00013424114968
aF6.68757417895722
aF6.17501411676767
aF6.362454054580667
aF6.449893992393299
aF7.937333930211025
aF9.92477386803057
aF6.112213805829015
aF8.199653743648923
aF6.5870936814553716
aF6.774533619268368
aF30.361973557166493
aF22.449413494950022
aF14.636853432733915
aF11.62429337053527
aF7.511733308332623
aF6.1991732461401625
aF13.086613183977533
aF7.5740531217697935
aF8.461493059585337
aF19.548932997437987
aF12.636372935225154
aF12.423812873036695
aF8.911252810836231
aF8.398692748646681
aF9.68613268646368
aF6.273572624263579
aF18.561012562120595
aF14.948452499919767
aF10.335892437715302
aF14.823332375543941
aF21.310772313379857
aF18.79821225118303
aF10.685652188965832
aF8.373092126769734
aF6.96053206457691
aF6.747972002388451
aF7.735411940204358
aF10.222851878025722
aF8.810291815832898
aF7.997731753642256
aF8.985171691458163
aF7.472611629264975
aF6.860051567075061
aF8.847491504894606
aF7.634931442702509
aF10.422371380524964
aF8.009811318328502
aF9.197251256145137
aF8.184691193953768
aF6.172131131758761
aF7.359571069575395
aF6.047011007382935
aF7.234450945199569
aF13.121890883033302
aF6.709330820822288
aF6.596770758634193
aF6.284210696445371
aF7.671650634262733
aF10.059090572083733
aF12.246530509904005
aF8.033970447700995
aF8.121410385513627
aF6.408850323319712
aF7.596290261136346
aF8.883730198953344
aF7.371170136760156
aF6.758610074570242
aF8.54605001238906
aF15.733489950227522
aF8.620929888013961
aF9.008369825827685
aF8.89580976363959
aF7.783249701447858
aF10.77068963927104
aF7.058129577069849
aF8.345569514886847
aF8.333009452699116
aF22.520449390563044
aF14.407889328345846
aF6.795329266130466
aF6.682769203942371
aF10.070209141767009
aF6.457649079566181
aF6.345089017378086
aF6.932528955192538
aF9.519968893014266
aF7.607408830819622
aF7.9948487686333465
aF8.482288706447434
aF45.06972864439285
aF36.35716858217347
aF27.844608519954818
aF19.73204845773762
aF12.819488395524786
aF6.706928333314863
aF6.194368271125313
aF8.081808208944494
aF6.469248146750942
aF7.156688084565758
aF7.544128022379482
aF7.2315679601906595
aF6.819007898001473
aF11.906447835832296
aF9.493887773635834
aF6.9813277114390075
aF7.768767649254187
aF10.456207587076278
aF8.443647524881271
aF7.63108746269063
aF7.2185274005014435
aF8.005967338316623
aF7.393407276126709
aF17.280847213974994
aF8.668287151755976
aF6.455727089560241
aF6.44316702737251
aF6.630606965185507
aF6.71804690299814
aF6.605486840810045
aF7.092926778624133
aF6.480366716434219
aF6.667806654247215
aF10.25524659207258
aF7.042686529873208
aF8.030126467689115
aF7.017566405497746
aF7.305006343311106
aF9.092446281129924
aF8.979886218941829
aF7.0673261567471855
aF8.154766094563456
aF7.9422060323749974
aF7.529645970185811
aF7.51708590799808
aF7.604525845810713
aF7.1919657836215265
aF8.179405721437433
aF7.0668456592457005
aF7.754285597060516
aF6.741725534869147
aF6.729165472681416
aF7.91660541049805
aF8.70404534831323
aF5.991485286115676
aF8.278925223936312
aF7.866365161747126
aF6.353805099553938
aF6.641245037367298
aF8.128684975185024
aF9.316124913001659
aF6.503564850803741
aF7.591004788620012
aF12.078444726448652
aF16.76588466427802
aF12.653324602075372
aF10.640764539880365
aF9.528204477688632
aF19.615644415537645
aF18.303084353345184
aF10.690524291129805
aF7.177964228929341
aF6.865404166740518
aF8.652844104559335
aF8.440284042370877
aF7.22772398017878
aF8.215163917994687
aF6.102603855799316
aF6.690043793613768
aF12.377483731446773
aF6.26492366923685
aF7.552363607053849
aF7.639803544866481
aF7.927243482679842
aF8.514683420494293
aF6.202123358298195
aF8.18956329611774
aF8.277003233930373
aF7.364443171739367
aF9.05188310955782
aF7.539323047364633
aF6.026762985171445
aF7.0142029229873515
aF6.20164286079671
aF6.8890827986115255
aF6.376522736421975
aF8.563962674242248
aF9.751402612058882
aF8.538842549866786
aF7.62628248767578
aF16.913722425521883
aF9.901162363308686
aF7.188602301111132
aF16.776042238958325
aF10.363482176747311
aF8.650922114553396
aF10.938362052374032
aF6.925801990171749
aF7.613241927986564
aF7.600681865798833
aF10.288121803620925
aF13.475561741444835
aF7.56300167923564
aF8.35044161705082
aF6.337881554855812
aF6.225321492667717
aF16.212761430516366
aF8.800201368301714
aF6.587641306105979
aF7.275081243920795
aF6.8625211817316085
aF6.449961119542422
aF7.2374010573576015
aF6.824840995168415
aF7.1122809329817755
aF7.899720870796955
aF8.487160808611407
aF10.474600746430951
aF8.8620406842374
aF11.2494806220584
aF6.236920559852479
aF6.624360497666203
aF6.911800435479563
aF10.499240373304929
aF6.686680311103373
aF15.374120248947293
aF8.46156018673446
aF6.64900012454018
aF6.8364400623531765
aF6.323880000163626
aF9.31131993798681
aF6.898759875790347
aF13.886199813628082
aF11.173639751430528
aF6.76107968922679
aF9.548519627049245
aF6.735959564851328
aF6.8233995026639604
aF7.510839440478776
aF13.6982793783136
aF15.785719316133509
aF8.47315925391922
aF6.660599191724941
aF17.848039129577955
aF10.235479067362576
aF8.52291900516866
aF6.410358942973289
aF6.6977988807866495
aF13.385238818623293
aF6.172678756409368
aF7.660118694227094
aF7.247558632037908
aF5.9349985698454475
aF13.622438507685729
aF7.109878445474351
aF9.397318383294987
aF16.08475832113163
aF10.372198258923163
aF6.459638196721244
aF11.747078134552794
aF13.334518072370884
aF12.121958010178787
aF7.009397947972502
aF8.596837885790592
aF6.584277823595585
aF8.07171776141331
aF6.859157699221214
aF6.446597637032028
aF15.634037574878676
aF8.121477512664569
aF18.008917450513763
aF10.696357388300385
aF7.18379732610083
aF7.571237263915464
aF9.35867720173519
aF9.246117139548005
aF11.833557077370642
aF11.320997015182002
aF13.308436953002456
aF8.6958768907989
aF7.383316828607349
aF9.870756766429622
aF7.658196704234797
aF8.845636642052341
aF6.933076579858607
aF7.620516517674332
aF6.707956455484236
aF32.59539639339164
aF48.28283633126193
aF43.070276269056194
aF35.35771620684136
aF26.845156144623616
aF19.432596082409873
aF11.020036020192492
aF8.207475957995484
aF6.594915895802842
aF9.18235583362548
aF6.669795771429563
aF6.957235709243832
aF6.1446756470541
aF14.232115584896746
aF6.119555522680457
aF6.206995460493999
aF6.394435398307905
aF9.881875336133817
aF6.469315273934626
aF6.756755211748896
aF8.74419514956935
aF6.631635087374889
aF7.21907502519025
aF8.30651496300743
aF8.893954900822791
aF8.681394838635242
aF8.66883477644842
aF7.856274714258689
aF24.54371465213262
aF15.731154589913785
aF12.218594527714231
aF7.106034465508856
aF7.993474403325308
aF41.380914341259995
aF41.5683542790739
aF33.7557942168587
aF27.043234154647507
aF19.030674092431582
aF11.91811403021893
aF7.005553968014283
aF7.992993905831099
aF6.5804338436391845
aF6.867873781453454
aF7.755313719269907
aF7.442753657081994
aF10.730193594907178
aF6.717633532705804
aF8.405073470525167
aF6.692513408332161
aF7.779953346149341
aF6.7673932839588815
aF7.55483322177497
aF29.742273159668912
aF21.229713097451167
aF15.717153035244337
aF7.604592973028048
aF8.192032910843409
aF6.779472848651494
aF9.06691278647304
aF12.554352724298951
aF9.441792662100852
aF7.929232599908573
aF12.816672537739578
aF7.004112475531656
aF6.491552413343015
aF7.17899235115874
aF7.566432288973374
aF7.553872226786552
aF6.841312164597184
aF9.028752102418366
aF6.816192040223541
aF26.60363197810875
aF20.591071915900102
aF11.87851185368163
aF7.565951791479165
aF6.053391729286886
aF10.240831667115344
aF6.628271604915426
aF6.315711542727513
aF7.503151480545057
aF6.29059141835387
aF8.67803135617578
aF7.065471293983137
aF10.85291123181014
aF9.240351169617497
aF6.727791107421581
aF8.915231045242763
aF9.702670983058852
aF14.390110920889128
aF6.477550858673567
aF13.16499079651112
aF12.15243073432066
aF8.23987067211965
aF34.8273106100296
aF27.614750547816584
aF20.40219048560357
aF11.989630423386188
aF8.977070361188453
aF10.464510299007088
aF7.251950236808625
aF6.439390174618893
aF18.026830112474272
aF9.914270050257983
aF15.101709988090079
aF8.889149925880702
aF9.476589863696063
aF8.064029801504148
aF6.251469739310778
aF7.63890967712905
aF9.626349614949504
aF9.713789552763046
aF6.901229490566038
aF22.088669428434514
aF15.776109366224773
aF8.463549304011394
aF6.650989241818024
aF6.338429179630111
aF6.825869117445109
aF8.21330905526338
aF7.600748993074376
aF8.888188930892284
aF15.975628868731292
aF11.363068806527735
aF6.350508744322724
aF15.037948682167553
aF12.125388619970181
aF7.512828557766625
aF7.000268495577984
aF6.287708433388616
aF7.575148371206524
aF8.262588309022249
aF6.950028246830698
aF7.637468184646423
aF7.4249081224588735
aF7.712348060273143
aF7.099787998084139
aF7.887227935900228
aF17.574667873748695
aF15.562107811554597
aF8.649547749342673
aF6.536987687148212
aF6.52442762496139
aF6.911867562776024
aF8.899307500596478
aF7.586747438404927
aF6.674187376214832
aF6.261627314026555
aF6.749067251841552
aF9.33650718966419
aF7.323947127470092
aF6.311387065279632
aF6.79882700309463
aF9.18626694091654
aF8.97370687872899
aF7.561146816537075
aF6.548586754346616
aF9.636026692171072
aF6.7234666299737
aF7.110906567788334
aF6.3983465055989655
aF10.385786443426696
aF10.073226381238783
aF8.060666319044685
aF9.148106256861865
aF6.3355461946648575
aF9.222986132488586
aF6.310426070291214
aF7.197866008107667
aF7.185305945920845
aF6.872745883732932
aF11.960185821564664
aF35.04762575946188
aF26.235065697243044
aF19.922505635033303
aF16.509945572834113
aF8.997385510620006
aF9.684825448435731
aF6.472265386237268
aF6.759705324051538
aF12.147145261884361
aF12.334585199698267
aF7.822025137495075
aF11.609465075322078
aF11.096905013133437
aF9.88434495094225
aF17.77178488878417
aF12.359224826577702
aF6.446664764369416
aF14.034104702210243
aF6.421544639995773
aF8.908984577818046
aF6.596424515622857
aF6.983864453437491
aF11.47130439126704
aF6.558744329062392
aF7.346184266878481
aF7.133624204690932
aF6.421064142501564
aF8.008504080320563
aF6.195944018127193
aF7.183383955944009
aF6.270823893753914
aF7.858263831572913
aF7.045703769383181
aF10.633143707209456
aF8.42058364501463
aF7.208023582823444
aF8.395463520640988
aF13.282903458471992
aF6.870343396261887
aF7.657783334077976
aF8.04522327189261
aF7.832663209705061
aF7.120103147515692
aF6.507543085326688
aF7.494983023143504
aF6.682422960953772
aF6.469862898766223
aF6.857302836580857
aF10.444742774407132
aF9.032182712215217
aF8.819622650027668
aF9.507062587843393
aF7.09450252564784
aF7.581942463462838
aF6.869382401273469
aF7.356822339088467
aF6.94426227690019
aF11.031702214728284
aF6.819142152526183
aF7.106582090340453
aF11.194022028168547
aF8.481461965971903
aF7.768901903782535
aF7.756341841595713
aF6.543781779404526
aF17.331221717256994
aF13.718661655057076
aF7.206101592846608
aF6.693541530657967
aF8.980981468479513
aF6.968421406285415
aF10.355861344110963
aF9.343301281920503
aF7.330741219726406
aF7.818181157541403
aF15.805621095383685
aF7.593061033167032
aF8.08050097098203
aF10.267940908803212
aF7.855380846607659
aF7.7428207844204735
aF8.73026072223729
aF7.517700660046103
aF12.105140597876016
aF7.392580535672096
aF6.580020473482364
aF35.9674604114025
aF27.85490034918621
aF22.542340286980107
aF16.529780224771457
aF9.01722016255735
aF6.204660100360343
aF14.192100038202625
aF13.57953997601362
aF9.966979913813702
aF7.954419851619605
aF18.64185978947171
aF10.129299727253965
aF9.616739665065325
aF11.504179602885415
aF7.791619540685133
aF6.67905947849431
aF6.766499416307852
aF6.553939354120303
aF6.641379291933845
aF7.528819229750297
aF6.216259167558746
aF10.403699105387204
aF6.691139043186922
aF10.07857898101247
aF8.766018918820919
aF6.153458856624638
aF6.840898794440363
aF6.428338732252087
aF9.015778670074724
aF12.703218607901363
aF6.0906585456905304
aF8.47809848351244
aF7.46553842132198
aF18.452978359175177
aF9.540418296955977
aF9.827858234770247
aF8.515298172578696
aF7.402738110387872
aF7.290178048200687
aF16.777617986048426
aF8.865057923832865
aF8.852497861646043
aF6.8399377994519455
aF15.527377737296774
aF6.914817675078666
aF6.4022576128900255
aF8.989697550712663
aF7.7771374885214755
aF7.864577426335018
aF7.452017364146741
aF14.639457301986113
aF6.926897239771279
aF6.314337177582274
aF6.50177711539618
aF7.289217053212269
aF14.376656991051277
aF6.564096928836079
aF8.251536866655442
aF7.938976804467529
aF9.926416742287984
aF9.31385668009898
aF8.001296617907428
aF6.48873655571515
aF6.7761764935294195
aF6.863616431342962
aF10.151056369168145
aF6.138496306966772
aF6.225936244780314
aF6.313376182593856
aF10.300816120421587
aF7.5882560582249425
aF9.475695996045033
aF10.663135933862577
aF6.950575871662295
aF7.038015809475837
aF6.025455747285378
aF12.312895685121475
aF6.800335622914645
aF11.587775560745285
aF6.275215498539183
aF13.36265543637819
aF9.850095374178636
aF6.837535311980901
aF8.224975249799172
aF6.212415187605075
aF10.199855125432805
aF6.487295063232523
aF7.674735001050067
aF26.76217493893273
aF18.64961487671644
aF12.137054814505973
aF6.924494752300234
aF11.31193469012942
aF10.999374627941506
aF12.98681456576196
aF6.974254503553311
aF24.461694441430154
aF15.849134379212046
aF8.636574316999031
aF9.724014254816211
aF7.311454192620658
aF8.498894130438202
aF7.786334068248834
aF8.173774006063468
aF6.361213943870098
aF14.148653881711653
aF11.636093819515736
aF9.623533757321638
aF10.110973695136636
aF9.698413632948359
aF6.6858535707506235
aF18.47329350860673
aF12.16073344639699
aF12.848173384212714
aF21.835613322058634
aF15.523053259848894
aF7.910493197634423
aF10.097933135455605
aF10.285373073269511
aF7.572813011072867
aF9.860252948894413
aF6.7476928866963135
aF6.035132824506945
aF8.222572762328127
aF6.110012700133666
aF12.897452637971583
aF17.88489257580295
aF12.272332513595757
aF6.759772451388926
aF12.347212389222477
aF7.234652327017102
aF10.022092264840467
aF7.109532202643095
aF16.896972140491926
aF11.78441207828655
aF6.971852016082266
aF8.359291953900538
aF7.64673189171117
aF13.934171829547267
aF9.221611767343347
aF10.609051705161619
aF12.296491642980982
aF10.083931580786157
aF9.67137151859788
aF13.858811456426338
aF9.146251394222418
aF13.633691332051967
aF8.821131269847683
aF7.808571207657224
aF6.6960111454664
aF7.883451083283944
aF7.570891021096031
aF7.158330958907754
aF24.14577089678278
aF15.433210834564306
aF8.520650772352383
aF6.808090710159377
aF8.195530647977648
aF19.182970585830844
aF14.270410523626197
aF11.057850461427734
aF7.545290399228179
aF6.132730337036264
aF6.420170274850534
aF6.4076102126637124
aF6.195050150476163
aF8.482490088297709
aF8.26993002611016
aF13.257369963941528
aF8.944809901739063
aF7.332249839546421
aF6.7196897773574165
aF8.207129715176052
aF7.194569652985592
aF9.78200959080823
aF18.169449528651967
aF13.25688946644732
aF10.644329404251039
aF11.2317693420664
aF9.219209279872302
aF9.606649217686936
aF8.394089155495749
aF6.481529093302015
aF6.4689690311151935
aF7.856408968933465
aF14.543848906771018
aF7.331288844558003
aF6.118728782366816
aF6.506168720181449
aF34.1936086580954
aF25.881048595878383
aF20.26848853367119
aF14.25592847146254
aF6.543368409247705
aF6.630808347061247
aF10.318248284887886
aF7.205688222689787
aF7.393128160503693
aF9.98056809832633
aF8.268008036133324
aF12.855447973963237
aF8.042887911758953
aF9.330327849576861
aF8.217767787386038
aF10.805207725208675
aF11.092647663022944
aF7.180087600821935
aF11.967527538652575
aF6.954967476447564
aF6.142407414257832
aF8.72984735208047
aF10.817287289901287
aF7.804727227703552
aF7.092167165514184
aF7.479607103328817
aF7.667047041142723
aF6.254486978950808
aF6.941926916766533
aF6.929366854579712
aF7.316806792394345
aF11.104246730221348
aF9.891686668030161
aF7.279126605833881
aF6.866566543645604
aF6.754006481458418
aF6.341446419270142
aF6.528886357084048
aF7.116326294899409
aF6.803766232711496
aF8.091206170529404
aF6.478646108336761
aF8.266086046156488
aF19.853525984011867
aF13.040965921800307
aF6.82840585959093
aF6.8158457974041085
aF9.403285735226746
aF9.190725673039196
aF7.778165610847282
aF7.5656055486597324
aF13.153045486493284
aF6.9404854242839065
aF7.1279253620978125
aF7.115365299910991
aF5.902805237719804
aF7.590245175539167
aF6.3776851133479795
aF13.565125051187351
aF7.352564988977974
aF12.440004926809706
aF7.82744486460615
aF6.8148848024156905
aF8.40232474023469
aF8.289764678047504
aF6.8772046158555895
aF11.964644553687322
aF13.452084491505957
aF31.539524429384983
aF23.726964367169785
aF21.714404304975687
aF18.201844242776133
aF10.889284180562754
aF6.476724118359925
aF7.5641640561771055
aF6.051603993984827
aF6.9390439318012795
aF7.6264838696170045
aF8.113923807432002
aF14.601363745268827
aF7.888803683057631
aF11.876243620885361
aF7.463683558682533
aF8.151123496498258
aF7.4385634343088896
aF8.226003372124978
aF7.913443309937065
aF10.800883247760794
aF8.188323185564514
aF8.875763123380239
aF6.56320306118505
aF8.750642999006232
aF13.438082936836508
aF9.82552287463659
aF15.512962812470505
aF11.400402750268768
aF8.687842688072124
aF9.875282625889668
aF8.962722563699572
aF23.750162501566592
aF26.63760243939032
aF18.925042377175487
aF13.312482314968292
aF10.299922252770557
aF7.387362190573185
aF7.174802128385636
aF12.362242066217732
aF20.54968200406074
aF13.93712194184991
aF10.624561879651083
aF10.112001817462442
aF8.999441755271619
aF7.086881693077885
aF6.774321630889972
aF8.06176156870788
aF7.449201506518875
aF7.436641444332054
aF7.324081382144868
aF7.011521319956955
aF12.998961257791962
aF7.086401195583676
aF6.4738411333946715
aF6.6612810712085775
aF6.74872100902212
aF18.93616094687968
aF14.023600884675034
aF8.611040822468567
aF6.198480760273014
aF8.185920698093469
aF6.67336063590119
aF11.360800573731467
aF6.648240511527547
aF6.23568044933927
aF7.523120387157178
aF12.810560324989638
aF8.498000262787173
aF6.585440200593439
aF10.07288013841935
aF9.360320076229982
aF8.347760014039523
aF9.435199951856703
aF6.522639889659331
aF22.510079827530717
aF15.397519765318066
aF7.684959703103232
aF7.072399640914227
aF11.259839578742685
aF7.147279516540948
aF6.234719454350852
aF6.522159392165122
aF7.009599329980119
aF8.89703926780021
aF9.384479205615207
aF6.171919143416744
aF11.759359081250295
aF6.246799019043465
aF6.634238956858098
aF8.621678894678553
aF8.709118832492095
aF7.196558770299816
aF6.583998708110812
aF7.371438645926901
aF7.658878583741171
aF6.846318521551439
aF7.133758459365708
aF9.121198397186163
aF16.308638335025535
aF11.49607827282125
aF6.283518210615512
aF8.37095814843633
aF9.358398086253146
aF6.145838024054683
aF7.533277961872955
aF10.820717899698138
aF6.608157837496037
aF6.295597775308124
aF8.983037713131125
aF8.170477650941393
aF10.557917588763303
aF7.145357526564112
aF7.932797464380201
aF7.920237402193379
aF7.107677340003647
aF6.095117277813188
aF9.382557215638371
aF12.469997153462828
aF6.157437091253087
aF7.244877029070267
aF7.432316966884173
aF15.919756904728274
aF8.007196842512712
aF6.294636780319706
aF12.282076718154713
aF6.669516655947518
aF6.556956593760333
aF21.54439653162808
aF22.83183646944599
aF14.519276407228972
aF9.106716345022505
aF7.394156282829499
aF6.781596220640495
aF23.869036158515883
aF15.65647609629923
aF12.143916034099675
aF7.431355971895755
aF10.418795909719847
aF11.006235847535208
aF7.893675785337109
aF7.581115723149196
aF7.5685556609623745
aF11.15599559878865
aF7.743435536589459
aF8.030875474403729
aF6.618315412211814
aF6.905755350026084
aF13.993195287865092
aF10.080635225664082
aF7.668075163468529
aF19.455515101093624
aF13.342955038828222
aF9.93039497652353
aF8.617834914188279
aF9.505274851821014
aF6.192714789514866
aF6.8801547271505115
aF6.567594664800708
aF12.155034602365049
aF6.742474540089461
aF19.329914477551938
aF13.117354415287991
aF6.4047943530313205
aF6.392234290677152
aF7.879674228301155
aF6.26711416597027
aF9.854554103563714
aF6.441994041259022
aF6.129433978909219
aF8.016873916527402
aF7.10431385418633
aF8.691753791808878
aF22.279193729256804
aF14.366633667017595
aF8.554073604747828
aF7.041513542415487
aF7.128953480059863
aF7.816393417695508
aF9.503833355316601
aF6.991273292998812
aF8.77871323061845
aF6.566153168296296
aF6.853593105937762
aF20.541033043384232
aF12.828472981142113
aF8.515912918850518
aF6.403352856526908
aF14.690792794051958
aF7.378232731804019
aF11.665672669387277
aF7.053112607100047
aF6.5405525447531545
aF6.7279924823960755
aF8.01543242002299
aF8.80287235765718
aF10.790312295273907
aF10.877752232918283
aF6.365192170629598
aF8.052632108250691
aF8.340072045892157
aF16.727511983415752
aF8.414951921182364
aF10.402391858799092
aF11.889831796423096
aF6.8772717341416865
aF6.164711671797704
aF6.752151609434804
aF6.339591547086457
aF6.227031484733743
aF7.214471422365023
aF8.201911359996302
aF9.189351297627582
aF11.176791235244309
aF6.264231172961445
aF10.651671110543248
aF8.939111048213817
aF7.5265509858800215
aF11.013990923474921
aF17.101430861031986
aF10.588870798772405
aF6.07631073648372
aF7.463750674109178
aF6.5511906117681065
aF6.438630549415393
aF18.726070486882236
aF13.913510424597916
aF11.200950362283038
aF10.188390299943421
aF9.07583023760526
aF36.763270174848
aF37.05071011248947
aF32.63815005019933
aF24.825589987958665
aF19.613029925680166
aF11.900469863438047
aF8.887909801127535
aF9.475349738764635
aF7.162789676443936
aF6.3502296141014085
aF6.33766955174724
aF8.725109489358147
aF9.212549426996702
aF9.599989364636713
aF6.5874293023262
aF9.774869239925465
aF7.862309177598945
aF6.549749115263694
aF10.437189052852773
aF8.024628990533529
aF9.212068928161898
aF6.899508865841199
aF6.186948803497216
aF8.674388741106668
aF6.461828678784514
aF6.54926861642889
aF8.436708554047073
aF6.224148491724918
aF7.011588429359108
aF7.799028366993298
aF7.986468304636219
aF15.973908242165635
aF13.861348179842025
aF6.248788117598451
aF13.536228055138054
aF9.423667992843548
aF7.111107930522849
aF8.498547868148307
aF6.285987805826153
aF7.273427743457432
aF7.560867681098898
aF8.148307618735998
aF7.835747556386195
aF6.323187494053855
aF6.61062743169532
aF6.1980673693469726
aF11.28550730691859
aF6.972947244626994
aF6.360387182281556
aF8.747827119892463
aF7.035267057563033
aF7.3227069952044985
aF7.410146932848875
aF9.197586870468513
aF7.285026808141993
aF9.572466745754355
aF7.459906683430745
aF7.847346621070756
aF6.834786558731139
aF6.2222264963857015
aF20.609666433821985
aF22.997106371432892
aF15.584546309186408
aF7.771986246945744
aF8.559426184579934
aF6.546866122254869
aF6.5343060599007
aF7.52174599753198
aF7.109185935183632
aF8.096625872814911
aF6.384065810485481
aF8.071505748106574
aF8.15894568575095
aF6.846385623415699
aF10.933825561001868
aF9.021265498675348
aF12.308705436273158
aF11.796145373926265
aF11.383585311577917
aF6.471025249295053
aF8.65846518690887
aF8.545905124556157
aF13.333345062132139
aF8.420784999849275
aF6.40822493752421
aF7.095664875159855
aF12.283104812730016
aF8.070544750436966
aF7.457984688091528
aF6.445424625751912
aF6.432864563397743
aF6.220304501046485
aF13.907744438580266
aF13.09518437623774
aF6.982624313972337
aF8.970064251589065
aF9.157504189231986
aF11.144944126848713
aF6.832384064557118
aF6.219824002211681
aF11.907263939774566
aF7.79470387748006
aF13.882143815037125
aF10.869583752726612
aF8.257023690410279
aF8.64446362805029
aF31.331903565365792
aF28.11934350305819
aF27.70678344070984
aF18.994223378482275
aF11.281663316240156
aF11.269103253885987
aF8.15654319157693
aF8.94398312921112
aF10.731423066830757
aF6.318863004540617
aF6.906302942177717
aF7.793742879810452
aF7.281182817463559
aF8.768622755087563
aF7.956062692745036
aF19.44350263022352
aF20.63094256785189
aF12.91838250560977
aF7.8058224433298165
aF11.093262380927627
aF6.480702318640397
aF8.268142256260035
aF8.055582193908776
aF20.243022131377074
aF12.83046206913059
aF9.717902006821532
aF10.105341944461543
aF10.292781882104464
aF12.380221819719736
aF6.6676617574485135
aF9.555101695052144
aF6.5425416327416315
aF8.529981570358359
aF8.117421508010011
aF7.504861445664574
aF8.192301383300219
aF17.079741320816538
aF9.267181258575874
aF6.654621196259541
aF7.442061133893731
aF7.329501071541017
aF8.316941009172297
aF7.0043809468370455
aF8.09182088446687
aF15.079260822010838
aF6.76670075977745
aF8.954140697391267
aF8.241580635047285
aF10.429020572661102
aF8.116460510340403
aF6.603900448008062
aF11.891340385576768
aF7.678780323283718
aF7.166220260936825
aF8.453660198563739
aF7.141100136228488
aF8.228540073858312
aF12.91598001143575
aF7.803419949155796
aF9.2908598867798
aF6.578299824464921
aF6.665739762109297
aF7.5531796997420315
aF8.7406196373704
aF9.52805957500459
aF6.715499512691167
aF6.902939450334088
aF13.690379387880967
aF6.677819325628661
aF7.965259263255575
aF10.552699200863572
aF10.240139138513769
aF6.8275790762090764
aF8.51501901383017
aF6.502458951505105
aF13.089898889054894
aF12.077338826715277
aF6.864778764436778
aF6.752218702084065
aF12.63965863964404
aF7.027098577371362
aF7.514538515009917
aF7.301978452658659
aF15.089418390190986
aF7.776858327943046
aF7.264298265596153
aF8.451738203224522
aF22.639178140663716
aF16.82661807839395
aF13.914058016081981
aF7.5014979538209445
aF8.18893789145659
aF6.676377829124249
aF12.763817766681314
aF6.751257704414456
aF15.038697641939507
aF8.226137579684291
aF12.813577517263184
aF7.101017454991961
aF6.788457392642158
aF7.175897330282169
aF13.263337267839233
aF6.450777205584018
aF7.8382171432094765
aF10.525657080816018
aF9.213097018480767
aF7.500536956151336
aF7.287976893800078
aF16.47541683131203
aF7.962856769081554
aF10.350296706692461
aF6.037736644400866
aF7.725176582021959
aF7.312616519673611
aF7.600056457315077
aF9.887496394927439
aF6.874936332616926
aF7.2623762702569366
aF15.249816207786353
aF11.037256145493302
aF10.224696083150775
aF7.5121360208358965
aF15.199575958369678
aF34.88701589572884
aF27.474455833482352
aF19.361895771246054
aF12.249335708995204
aF11.836775646646856
aF7.524215584355261
aF6.311655522018555
aF8.399095459633827
aF7.5865353972913
aF10.67397533489202
aF8.861415272564045
aF6.448855210244801
aF9.036295147852798
aF6.523735085535009
aF6.51117502318084
aF9.498614960783016
aF10.38605489841575
aF6.1734948361227
aF9.560934773719055
aF7.048374711401266
aF6.735814649051463
aF9.32325458665946
aF15.210694524219434
aF19.198134461807058
aF18.9855743994558
aF10.473014337225322
aF6.260454274932272
aF6.147894212579558
aF13.43533415011916
aF6.122774087871221
aF7.31021402549959
aF7.197653963146877
aF6.9850939007956185
aF9.67253383840216
aF6.359973776096012
aF9.847413713690912
aF9.634853651339654
aF7.4222935890174995
aF6.509733526676428
aF7.197173464312073
aF8.184613401943352
aF6.272053339616832
aF5.959493277267029
aF8.146933214880846
aF8.234373152525222
aF6.421813090197247
aF7.609253027825616
aF9.196692965448165
aF6.584132903131831
aF10.07157284072673
aF9.059012778387114
aF15.146452715944179
aF6.833892653710791
aF18.42133259118782
aF9.808772528958798
aF6.496212466652651
aF7.48365240428393
aF8.871092341909389
aF7.458532279575593
aF8.045972217212693
aF8.333412154854159
aF20.120852092328278
aF11.80829203009489
aF6.195731967822212
aF8.18317190543894
aF22.870611842870858
aF15.258051780627284
aF10.14549171834733
aF7.232931656035362
aF10.220371593637537
aF8.807811531303742
aF7.49525146896849
aF9.682691406582308
aF10.470131344216497
aF6.557571281919081
aF6.845011219560547
aF14.13245115710015
aF6.519891094856575
aF8.107331032479124
aF6.394770970149693
aF13.382210907693661
aF6.86965084543408
aF6.657090783082822
aF8.844530720696639
aF11.131970658309001
aF7.019410596014495
aF8.006850533645775
aF11.39429047124213
aF7.081730408950534
aF9.369170346562896
aF17.256610284093767
aF8.74405022186329
aF7.931490159520763
aF7.118930097178236
aF7.306370034821157
aF9.093809972440795
aF6.481249910124461
aF10.068689847717906
aF6.556129785414669
aF6.443569723061955
aF8.231009660681593
aF7.318449598340521
aF9.805889535949973
aF6.79332947363946
aF6.880769411283836
aF8.56820934890493
aF7.055649286572589
aF8.943089224190771
aF7.030529161864251
aF8.41796909948971
aF6.3054090371661005
aF22.2928489745791
aF23.780288912203105
aF16.96772884994789
aF15.155168787619914
aF7.54260872537634
aF14.930048662914487
aF8.51748860065345
aF7.904928538308013
aF6.792368475969852
aF7.0798084136113175
aF14.967248351142189
aF10.454688288853504
aF9.342128226515342
aF7.129568164193188
aF9.41700810180555
aF8.304448039467388
aF10.59188797707975
aF9.2793279147445
aF6.9667678524238
aF6.754207790072542
aF6.441647727722739
aF8.229087665342377
aF6.016527603020222
aF8.603967540628219
aF7.391407478291512
aF7.078847415941709
aF10.966287353530788
aF8.653727291210089
aF7.141167228877748
aF6.828607166527945
aF6.916047104172321
aF8.30348704179778
aF6.990926979462529
aF7.8783669170952635
aF7.665806854744005
aF8.253246792381105
aF11.140686729984736
aF6.828126667693141
aF7.315566605331696
aF6.10300654299499
aF7.890446480614628
aF9.077886418242997
aF14.265326355813158
aF7.552766293556488
aF17.5402062310568
aF13.12764616876666
aF8.015086106486706
aF10.802526044091792
aF10.589965981740534
aF7.577405919430021
aF9.464845857048203
aF9.252285794696945
aF9.839725732334045
aF13.927165669920214
aF6.914605607667909
aF6.102045545325382
aF6.489485482965392
aF10.376925420554471
aF6.464365358257055
aF7.551805295886879
aF13.439245233446854
aF7.626685171177087
aF8.914125108804
aF6.901565046478936
aF9.789004984082567
aF19.476444921587245
aF12.06388485934076
aF9.95132479701715
aF7.0387647347051825
aF7.7262046723408275
aF8.513644609975017
aF7.301084547638311
aF7.888524485275411
aF16.075964422801917
aF7.463404360572895
aF7.95084429821145
aF6.4382842358791095
aF7.225724173513299
aF13.113164111073274
aF8.500604048786045
aF8.58804398643042
aF6.575483924105356
aF7.462923861738091
aF7.550363799382467
aF7.637803737026843
aF8.725243674656667
aF11.912683612255933
aF6.800123549975979
aF7.0875634876174445
aF10.375003425215255
aF7.9624433628960105
aF9.34988330052147
aF6.83732323820368
aF9.424763175811677
aF6.312203113502619
aF21.49964305092726
aF12.787082988699694
aF7.87452292641683
aF8.66196286405102
aF13.549402801625547
aF7.236842739363055
aF8.824282676985604
aF17.711722614501923
aF10.099162552258349
aF8.086602489933284
aF8.874042427567474
aF10.661482365187112
aF8.648922302862047
aF6.836362240534072
aF7.723802178166807
aF12.711242115739878
aF6.0986820534817525
aF6.786121991117398
aF7.073561928758863
aF8.961001866377046
aF28.14844180374348
aF30.13588174136021
aF45.623321678780485
aF37.81076161653982
aF31.598201554275875
aF34.885641491873685
aF26.67308142963884
aF18.760521367399633
aF10.047961305172066
aF18.735401242691296
aF10.422841180457908
aF6.410281118161947
aF8.09772105578304
aF6.985160993444879
aF7.272600931086345
aF8.460040868714714
aF7.647480806372187
aF19.53492074384485
aF13.522360681577993
aF6.309800619328598
aF10.697240556910401
aF7.984680494595523
aF7.872120432242809
aF9.359560369866813
aF12.147000307471899
aF6.2344402452035865
aF8.021880182823224
aF6.6093201204894285
aF7.396760058123618
aF7.084199995773815
aF10.27163993337308
aF10.059079871021822
aF9.34651980867784
aF7.833959746345499
aF7.121399684001517
aF6.808839621651714
aF6.396279559303366
aF22.983719496707636
aF14.871159434471338
aF8.458599372210301
aF6.746039309880871
aF9.233479247490322
aF6.820919185171078
aF7.008359122813999
aF7.795799060448189
aF8.38323899808529
aF6.870678935752949
aF6.458118873404601
aF6.3455588110518875
aF7.832998748675891
aF10.220438686286798
aF10.307878623931174
aF10.19531856157846
aF8.48275849924903
aF6.7701984369196
aF9.157638374530507
aF7.545078312199621
aF6.23251824986437
aF6.6199581875043805
aF6.307398125154577
aF14.794838062676718
aF7.6822780004258675
aF12.769717937997484
aF8.257157875708799
aF7.444597813366272
aF7.732037751007738
aF20.919477688461484
aF14.406917626201903
aF8.89435756392777
aF7.481797501593974
aF7.169237439244171
aF8.956677376863809
aF6.24411731454893
aF9.131557252152561
aF7.118997189827496
aF12.406437127396202
aF6.393877065129345
aF9.081317002735886
aF6.6687569404166425
aF7.156196878055198
aF8.343636815683567
aF6.631076753354137
aF6.418516691002878
aF8.305956628621061
aF7.593396566277079
aF6.080836503944738
aF6.368276441586204
aF9.55571637918547
aF6.743156316872046
aF10.1305962544684
aF14.318036192053114
aF6.405476129813906
aF6.592916067456827
aF13.28035600500516
aF9.06779594271211
aF16.5552358802488
aF11.042675817974668
aF9.930115755636507
aF7.017555693324539
aF10.204995630923804
aF6.692435568620567
aF6.1798755062736745
aF6.86731544390932
aF7.054755381552241
aF6.2421953192097135
aF6.9296352568453585
aF6.417075194498466
aF8.104515132119559
aF10.391955069731921
aF6.17939500743887
aF7.966834945058508
aF6.654274882723257
aF6.841714820366178
aF9.229154757977085
aF11.116594695595268
aF7.904034633287665
aF7.191474570943683
aF17.978914508432354
aF12.066354446164041
aF6.353794383892819
aF8.241234321511001
aF14.028674259072432
aF8.016114196805574
aF8.90355413443831
aF9.590994072073954
aF6.278434009767807
aF17.5658739472492
aF10.253313885001262
aF6.240753822705301
aF13.128193760250724
aF7.515633697978046
aF8.80307363560496
aF5.990513573291537
aF8.977953510893713
aF11.16539344850753
aF11.55283338614754
aF6.140273323871952
aF7.027713261504687
aF8.415153199130145
aF7.702593136786163
aF6.590033074448002
aF17.877473011929396
aF9.764912949693098
aF11.452352887314191
aF8.439792825003678
aF8.6272327626466
aF7.2146727003128035
aF22.90211263773017
aF14.589552575496782
aF6.576992513259029
aF10.964432450840832
aF73.35187238757862
aF72.5393123252361
aF65.02675226299107
aF57.11419220075186
aF49.40163213850974
aF43.28907207624434
aF34.876512014012405
aF27.46395195176592
aF21.7513918894947
aF14.538831827245303
aF11.026271764942067
aF6.413711702654837
aF6.901151640293392
aF6.788591577940679
aF10.376031515534123
aF6.363471453238162
aF8.450911390853435
aF9.938351328477438
aF9.72579126612618
aF7.61323120380257
aF7.300671141452767
aF9.488111079066584
aF7.675551016738609
aF7.262990954390261
aF6.350430892049189
aF6.137870829697931
aF7.425310767324845
aF7.312750704972132
aF9.600190642584494
aF12.58763058018667
aF8.575070517890708
aF8.862510455532174
aF8.649950393180916
aF17.137390330703056
aF12.024830268423102
aF8.61227020611841
aF7.899710143774428
aF10.18715008138679
aF6.574590019085008
aF7.062029956723563
aF6.549469894376671
aF6.736909832019592
aF16.724349769519904
aF14.31178970720066
aF13.699229644855222
aF8.686669582573813
aF6.874109520245838
aF7.061549457888759
aF6.248989395546232
aF6.136429333193519
aF8.523869270804425
aF6.91130920847354
aF7.098749146116461
aF13.586189083667705
aF9.773629021368833
aF8.961068959026306
aF6.448508896708518
aF8.73594883432088
aF6.62338877199727
aF6.610828709643101
aF6.398268647291843
aF7.185708584926033
aF20.873148522372503
aF12.060588460146391
aF7.148028397863527
aF7.035468335510814
aF11.022908273098437
aF7.110348210801021
aF8.29778814842939
aF7.485228086086863
aF6.372668023748702
aF7.560107961377071
aF6.747547899034544
aF8.534987836654182
aF11.522427774256357
aF6.809867711970583
aF8.097307649597496
aF6.6847475872637006
aF7.272187524900801
aF7.459627462543722
aF10.947067400138621
aF12.834507337756804
aF7.821947275475395
aF6.909387213134323
aF7.9968271507641475
aF11.584267088357592
aF15.371707025948126
aF6.759146963719104
aF6.6465869013663905
aF12.534026838926366
aF9.321466776618763
aF20.40890671410307
aF13.396346651850763
aF6.883786589591182
aF7.7712265272239165
aF11.858666464810085
aF6.646106402531586
aF10.43354634012212
aF12.620986277735938
aF9.70842621542397
aF6.695866153113457
aF12.583306090673432
aF7.370746028394933
aF8.358185966026213
aF8.145625903674954
aF16.033065841205826
aF8.020505778968072
aF9.107945716597897
aF8.895385654246638
aF8.88282559189247
aF6.77026552956886
aF6.457705467219057
aF8.245145404838695
aF15.232585342382663
aF7.8200252801361785
aF12.80746521770925
aF6.994905155439483
aF9.082345093054755
aF8.769785030704952
aF7.057224968375522
aF6.944664906022808
aF6.93210484366864
aF6.919544781314471
aF6.506984718966123
aF13.094424656515912
aF7.981864594235958
aF9.369304531861417
aF6.356744469550904
aF8.444184407166176
aF6.831624344835291
aF6.419064282486943
aF9.906504220081843
aF8.193944157752412
aF6.281384095425892
aF6.868824033062992
aF6.656263970711734
aF6.343703908361931
aF6.231143846009218
aF6.318583783653594
aF7.106023721287784
aF10.993463658876863
aF21.980903596362623
aF17.868343534068117
aF10.055783471827453
aF6.743223409521306
aF6.7306633471671375
aF8.018103284794051
aF6.305543222464621
aF5.992983160114818
aF11.780423097676248
aF8.567863035368646
aF6.755302973040671
aF18.642742910513334
aF10.730182848274126
aF7.017622785973799
aF12.60506272353814
aF6.1925026612771035
aF15.179942598791968
aF9.16738253652511
aF6.054822474216053
aF7.242262411844422
aF6.629702349498984
aF12.51714228705896
aF7.70458222477464
aF10.092022162385547
aF10.479462100025557
aF9.46690203768594
aF6.454341975375428
aF7.141781913011073
aF7.829221850646718
aF8.416661788283818
aF7.804101725938381
aF8.891541663568205
aF6.278981601251871
aF7.266421538883151
aF6.153861476544989
aF12.641301414096233
aF7.028741351823555
aF17.216181289320957
aF10.703621227061376
aF7.791061164749408
aF11.578501102339942
aF14.765941039939207
aF7.953380977683992
aF6.1408209153560165
aF7.528260852981475
aF11.015700790576375
aF7.503140728273138
aF6.8905806659277005
aF6.278020603582263
aF7.7654605412062665
aF7.152900478860829
aF6.940340416509571
aF7.427780354148126
aF6.515220291807054
aF7.1026602294441545
aF10.09010016704633
aF6.177540104748914
aF8.264980042364186
aF7.952419980014383
aF10.33985991762529
aF11.927299855247838
aF6.71473979296934
aF6.802179730613716
aF6.789619668259547
aF7.577059605893737
aF11.364499543484271
aF6.951939481194131
aF12.539379418758472
aF16.526819356346095
aF9.014259294101066
aF7.401699231770181
aF9.489139169385453
aF16.576579106927966
aF8.464019044691668
aF11.551458982292388
aF9.938898919961503
aF8.226338857632072
aF16.413778795158578
aF8.701218732916459
aF15.588658670461882
aF8.076098608216853
aF14.863538545763731
aF8.15097848350706
aF7.738418421158713
aF8.225858358797268
aF6.413298296469293
aF10.300738234058372
aF13.888178171651816
aF8.875618109370407
aF7.963058047029335
aF7.850497984676622
aF6.237937922345736
aF9.325377859946457
aF12.012817797552998
aF10.600257735219202
aF7.687697672907234
aF7.77513761055161
aF8.36257754818871
aF15.550017485729768
aF6.737457423503656
aF6.624897361150943
aF6.11233729880405
aF9.59977723639895
aF7.087217174081161
aF10.77465711167315
aF7.6620970493640925
aF7.8495369870070135
aF13.436976924571354
aF10.524416862259386
aF6.911856799957604
aF14.999296737485565
aF8.586736675224529
aF8.474176612871815
aF7.261616550535109
aF6.349056488194037
aF6.536496425836958
aF6.723936363479879
aF8.211376301103883
aF12.89881623868132
aF7.886256176399911
aF8.273696114039922
aF6.061136051717767
aF7.048575989349047
aF8.33601592697596
aF6.723455864645075
aF6.410895802295272
aF8.498335739910544
aF9.285775677544734
aF6.373215615232766
aF9.660655552830576
aF7.148095490512787
aF9.335535428126605
aF6.822975365808816
aF10.910415303394984
aF8.597855241074285
aF6.485295178750675
aF11.572735116322292
aF6.2601750540452485
aF7.047614991679438
aF27.03505492903423
aF29.22249486664805
aF22.1099348043972
aF16.597374742123066
aF8.284814679889678
aF16.672254617413273
aF8.359694555179885
aF9.44713449280971
aF10.03457443044681
aF7.8220143681246554
aF7.209454305779218
aF7.696894243417773
aF8.684334181049053
aF9.271774118686153
aF6.359214056374185
aF8.446653993989457
aF7.434093931649841
aF8.42153386928112
aF10.608973806894937
aF7.49641374458588
aF8.483853682217159
aF7.271293619880453
aF10.158733557484084
aF10.44617349512555
aF7.9336134328077605
aF14.32105337036046
aF7.908493308099423
aF7.895933245745255
aF14.883373183289223
aF10.070813121004903
aF6.4582530587031215
aF5.945692996356229
aF23.333132933748857
aF29.720572871301556
aF20.8080128090769
aF12.795452746839146
aF6.282892684579565
aF8.370332622194837
aF7.7577725598494
aF8.3452124974865
aF9.032652435122145
aF11.320092372734507
aF6.107532310456008
aF6.09497224810184
aF7.182412185731664
aF8.969852123351302
aF9.357292060991313
aF6.744731998674979
aF14.232171936211671
aF6.219611873973918
aF6.5070518116153835
aF11.99449174918118
aF10.781931686844473
aF8.569371624522319
aF13.456811562096846
aF11.044251499777602
aF6.931691437483096
aF8.919131375099823
aF8.106571312757296
aF6.5940112504249555
aF7.2814511880606005
aF8.66889112568606
aF6.55633106336245
aF6.543771001008281
aF10.531210938595905
aF8.018650876278116
aF7.106090813937044
aF6.4935307515916065
aF6.580970689235983
aF11.168410626814875
aF9.955850564478169
aF6.943290502167656
aF7.330730439807667
aF6.718170377462229
aF6.805610315106605
aF6.393050252758258
aF7.980490190380806
aF7.567930128032458
aF8.055370065671013
aF6.742810003335762
aF9.430249940942304
aF11.517689878557576
aF6.105129816281988
aF6.892569753916177
aF6.580009691566374
aF7.267449629202019
aF6.3548895668609475
aF9.542329504460213
aF7.629769442133693
aF7.717209379778069
aF9.604649317396252
aF10.592089255027531
aF7.379529192719929
aF9.766969130330835
aF8.654409067992674
aF7.241849005658878
aF7.729288943297433
aF6.616728880959272
aF7.0041688185992825
aF13.291608756153437
aF17.579048693736695
aF10.76648863148148
aF7.553928569173877
aF6.841368506829895
aF17.228808444324386
aF8.616248382095364
aF6.00368831977903
aF7.591128257401579
aF20.778568194855325
aF14.266008132595744
aF10.353448070298327
aF12.740888007909234
aF6.928327945639467
aF6.415767883292574
aF8.703207820904936
aF9.99064775853185
aF8.678087696196599
aF27.36552763357031
aF18.852967571339832
aF11.240407509096258
aF6.9278474468046625
aF10.215287384402473
aF8.602727322071587
aF8.19016725972324
aF8.77760719736034
aF7.765047135020723
aF6.9524870726781955
aF7.339927010318206
aF9.627366947930568
aF8.714806885589496
aF9.302246823226596
aF9.289686760872428
aF6.777126698554639
aF7.264566636193194
aF7.052006573841936
aF8.639446511464485
aF9.226886449101585
aF11.114326386719767
aF16.201766324291384
aF10.88920626201434
aF7.176646199714014
aF6.764086137365666
aF7.951526074994035
aF7.238966012650053
aF6.226405950310436
aF11.713845887876232
aF7.801285825578816
aF7.288725763231923
aF6.276165700892307
aF8.663605638503213
aF13.851045576073375
aF14.13848551371484
aF10.625925451411604
aF6.813365389112732
aF8.200805326738191
aF8.188245264384022
aF7.67568520203713
aF10.463125139642216
aF6.750565077341889
aF29.938005014650116
aF31.525444952272665
aF23.012884890042187
aF19.90032482773313
aF12.687764765483735
aF14.775204703099007
aF6.462644640865619
aF6.750084578507085
aF9.837524516107806
asS'avg_freq'
p3
cnumpy.core.multiarray
scalar
p4
(cnumpy
dtype
p5
(S'f8'
p6
I0
I1
tp7
Rp8
(I3
S'<'
p9
NNNI-1
I-1
I0
tp10
bS'\xefQ\xb8\x1e\x85\xeb\xf1?'
p11
tp12
Rp13
s.