(dp0
S'lifetimes'
p1
(lp2
F5.735872307329508
aF14.471744614659329
aF6.807616921988917
aF4.343489229318578
aF3.6793615366482655
aF6.315233843977083
aF8.05110615130593
aF3.9869784586351074
aF4.022850765964051
aF5.858723073292893
aF9.094595380621683
aF5.430467687950852
aF4.266339995279878
aF3.7022123026088707
aF16.838084609937084
aF11.173956917266366
aF4.009829224595734
aF9.745701531924368
aF8.181573839253417
aF4.61744614658258
aF4.853318453911527
aF7.889190761244151
aF15.4250630685778
aF8.660935375908196
aF7.496807683239865
aF14.93267999057349
aF5.068552297903182
aF5.804424605235283
aF5.340296912567112
aF9.876169219900078
aF3.812041527230633
aF6.147913834563099
aF3.6837861418944726
aF6.919658449227143
aF4.755530756558585
aF4.591403063890482
aF8.627275371223334
aF4.663147678554367
aF5.199019985886423
aF4.8348922932182745
aF4.97076460055024
aF4.606636907882091
aF4.04250921521384
aF4.378381522545851
aF3.414253829877566
aF4.6501261372097815
aF7.185998444542292
aF3.721870751873439
aF5.857743059205859
aF4.293615366537438
aF4.029487673869312
aF3.9653599812012317
aF3.301232288533015
aF8.237104595866072
aF3.672976903196968
aF3.908849210528956
aF7.64472151786174
aF6.380593825193387
aF4.416466132524874
aF4.652338439856862
aF4.988210747188873
aF6.5240830545211566
aF3.3599553618523714
aF16.195827669187224
aF7.331699976517143
aF10.0675722838497
aF5.503444591180596
aF13.339316898514312
aF5.17518920584439
aF4.01106151317606
aF5.346933820508298
aF9.582806127841195
aF4.618678435172001
aF5.054550742504034
aF3.9904230498357265
aF12.726295357169647
aF3.862167664499566
aF3.59803997183144
aF3.433912279163337
aF4.069784586495416
aF4.605656893827472
aF3.441529201159142
aF8.577401508492244
aF4.913273815823345
aF13.149146123148512
aF3.4850184304773393
aF5.3208907377957075
aF5.356763045115713
aF7.7926353524335354
aF12.028507659749721
aF3.764379967077275
aF6.100252274395189
aF5.736124581715558
aF4.071996889037109
aF4.507869196356751
aF5.443741503675938
aF4.77961381099658
aF9.915486118311946
aF4.051358425637318
aF5.387230732956141
aF4.823103040276692
aF3.6589753475977886
aF56.89484765486941
aF48.03071996219751
aF38.566592269526154
aF40.60246457684434
aF33.63833688417071
aF28.874209191495083
aF21.110081498822183
aF13.345953806149282
aF4.481826113477382
aF6.017698420796023
aF12.453570728110208
aF5.689443035436398
aF4.925315342757131
aF5.161187650076954
aF3.9970599573980508
aF8.432932264714054
aF4.468804572037698
aF5.4046768793568845
aF10.64054918667216
aF3.6764214939985322
aF4.612293801317719
aF4.148166108638179
aF6.984038415955638
aF10.219910723272733
aF6.255783030596376
aF5.191655337917382
aF7.927527645234932
aF3.963399952558575
aF5.699272259877034
aF4.135144567198495
aF4.771016874517954
aF6.406889181836505
aF9.942761489153327
aF9.778633796473514
aF5.114506103797794
aF3.9503784111188907
aF4.386250718438532
aF7.622123025755627
aF8.057995333075269
aF10.993867640392637
aF4.029739947719008
aF6.365612255036922
aF7.801484562355654
aF6.4373568696769325
aF4.973229176998302
aF5.80910148431758
aF6.044973791637403
aF4.380846098958955
aF4.716718406278687
aF3.852590713599511
aF3.4884630209198804
aF8.624335328235247
aF4.160207635559345
aF4.796079942878805
aF14.931952250189624
aF4.867824557518816
aF8.003696864836002
aF4.53956917215919
aF4.275441479479468
aF5.8113137867981095
aF4.24718609411957
aF24.68305840142102
aF14.718930708750122
aF6.354803016077767
aF3.690675323400228
aF4.026547630719961
aF3.6624199380403297
aF16.298292245348875
aF11.034164552673701
aF24.57003685998143
aF36.005909167291065
aF36.84178147461034
aF31.37765378193535
aF38.813526089248626
aF28.749398396577817
aF19.48527070390628
aF9.421143011235472
aF5.757015318558842
aF7.592887625877211
aF6.028759933198671
aF6.76463224051804
aF6.900504547837954
aF5.936376855158869
aF3.6722491624809663
aF5.208121469799607
aF4.143993777120613
aF4.579866084440255
aF16.31573839174962
aF7.951610699077264
aF3.7874830064010894
aF5.4233553137196395
aF4.7592276210402815
aF9.995099928355557
aF5.730972235679474
aF3.966844543001116
aF6.202716850319121
aF5.138589157640126
aF4.074461464961132
aF3.510333772281683
aF5.5462060795998696
aF4.182078386921148
aF7.117950694238516
aF12.453823001553701
aF64.48969530882641
aF56.22556761615397
aF47.561439923481885
aF37.89731223081071
aF31.133184538136902
aF21.069056845466093
aF11.604929152794739
aF5.540801460120292
aF6.37667376743957
aF4.212546074761576
aF8.748418382077489
aF4.484290689401405
aF8.220162996718045
aF6.656035304039506
aF7.89190761135842
aF3.727779918682245
aF5.263652226000886
aF13.79952453331316
aF11.035396840635713
aF4.471269147961721
aF5.6071414552807255
aF6.143013762600276
aF3.578886069922646
aF4.514758377241833
aF6.650630684559928
aF5.786502991880752
aF4.422375299202031
aF3.858247606522582
aF4.69411991384186
aF4.22999222116232
aF3.76586452848278
aF3.501736835803058
aF4.237609143122427
aF3.4734814504431597
aF4.5093537577622556
aF3.6452260650830794
aF13.781098372393899
aF4.81697067972209
aF6.852842987040276
aF5.788715294361282
aF6.824587601680378
aF6.860459909000383
aF5.396332216321753
aF12.132204523635664
aF7.8680768309595805
aF4.403949138282769
aF4.139821445603047
aF9.175693752918505
aF6.11156606024133
aF4.5474383675627905
aF3.4833106748837963
aF3.919182982203438
aF3.855055289523534
aF7.690927596840083
aF5.52679990416209
aF5.262672211482368
aF6.198544518801555
aF6.834416826121014
aF5.670289133442111
aF5.706161440762116
aF4.742033748083031
aF5.577906055402309
aF7.8137783627203135
aF6.349650670041683
aF8.185522977360051
aF7.621395284680602
aF6.057267592002063
aF4.393139899323614
aF11.72901220663698
aF6.06488451396217
aF5.000756821283176
aF4.136629128604
aF3.6725014359244597
aF4.508373743243737
aF3.9442460505642885
aF3.7801183578844757
aF6.01599066520248
aF16.751862972512754
aF6.887735279841763
aF11.323607587157767
aF4.25947989448423
aF3.3953522018050535
aF5.531224509123149
aF6.1670968164426085
aF14.202969123755338
aF4.338841431084347
aF4.874713738403898
aF10.810586045718537
aF3.546458353045182
aF4.882330660364005
aF6.218202967682828
aF6.054075275003015
aF4.289947582324658
aF5.125819889643935
aF6.961692196962304
aF7.397564504281945
aF6.033436811603224
aF7.469309118921956
aF4.405181426244781
aF3.5410537335656045
aF8.176926040881426
aF5.412798348203978
aF4.548670655524802
aF7.48454296284217
aF3.420415270165904
aF5.756287577483818
aF4.092159884805369
aF4.528032192125011
aF4.16390449944538
aF3.599776806765931
aF6.935649114082935
aF3.3715214214062144
aF4.107393728725583
aF4.443266036045316
aF11.079138343359318
aF6.315010650683689
aF3.8508829580059682
aF3.6867552653261555
aF10.12262757264034
aF7.858499879962437
aF7.794372187282534
aF3.4302444946065407
aF4.666116801925455
aF9.301989109241276
aF3.6378614165664658
aF6.673733723883743
aF6.309606031204112
aF7.445478338523117
aF9.181350645841576
aF16.217222953155215
aF7.653095260483042
aF3.888967567806503
aF4.124839875126327
aF9.66071218244133
aF3.396584489767065
aF3.9324567970866156
aF7.368329104466284
aF4.104201411822032
aF4.340073719190514
aF6.475946026565907
aF5.011818333928204
aF7.2476906413039615
aF4.883562948662984
aF4.319435256028555
aF4.155307563395581
aF3.79117987076188
aF5.227052178134727
aF5.962924485505027
aF4.198796792866233
aF10.534669100256906
aF3.8705414076002853
aF4.2064137149691305
aF3.942286022335793
aF5.5781583297093675
aF8.21403063708658
aF4.749902944441601
aF3.9857752518064444
aF3.9216475591738345
aF5.557519866547409
aF4.99339217391298
aF3.929264481276732
aF4.365136788645941
aF4.00100909601224
aF3.736881403378902
aF4.67275371074993
aF4.908626018118412
aF6.444498325491622
aF13.280370632884114
aF4.716242940220582
aF7.152115247597067
aF8.587987554969914
aF5.323859862325662
aF8.459732169704694
aF6.095604477063716
aF3.831476784423103
aF10.367349091814503
aF4.803221399161885
aF7.539093706539461
aF3.8749660138937543
aF4.2108383212625995
aF4.746710628632172
aF6.282582936005383
aF6.218455243372773
aF7.854327550746348
aF3.8901998580995496
aF5.526072165473124
aF8.061944472849973
aF11.797816780231187
aF3.933689087570201
aF10.66956139496233
aF3.405433702303526
aF3.741306009672371
aF8.577178317057587
aF5.4130506244136996
aF19.948922931834204
aF9.884795239165214
aF7.320667546523509
aF4.156539853879622
aF6.392412161255379
aF35.02828446872718
aF24.96415677605819
aF15.400029083391019
aF7.135901390728577
aF6.3717736980934205
aF7.507646005465176
aF5.743518312826382
aF6.779390620197773
aF12.015262927584445
aF5.25113523492746
aF3.9870075422904847
aF3.4228798496560557
aF3.658752157024537
aF3.8946244643930186
aF5.230496771765502
aF7.166369079140168
aF3.3022413864937334
aF5.538113693869491
aF3.7739860012306963
aF4.209858308599905
aF27.545730616052424
aF18.281602923386345
aF9.217475230720993
aF8.953347538087655
aF4.889219845440493
aF3.525092152803154
aF10.260964460195282
aF4.896836767543391
aF5.832709074914419
aF16.86858138232219
aF8.504453689659385
aF9.640325997031141
aF6.176198304386162
aF5.8120706117524605
aF7.04794291912458
aF3.483815226479237
aF15.819687533891738
aF10.955559841241666
aF7.59143214859705
aF12.027304455980811
aF18.663176763372576
aF14.799049070726142
aF5.234921378058971
aF5.67079368542818
aF4.30666599279084
aF4.042538300157503
aF5.078410607528895
aF7.614282914905743
aF6.15015522226804
aF5.386027529632884
aF6.221899837003548
aF4.8577721443662085
aF4.193644451731416
aF6.2295167591064455
aF4.865389066469106
aF7.701261373847046
aF5.237133681205705
aF6.573005988578188
aF5.408878295941577
aF3.5447506033024183
aF4.58062291067381
aF3.3164952180368346
aF4.45236752540859
aF10.488239832798172
aF4.124112140142643
aF3.959984447509669
aF3.5958567548759675
aF5.031729062248814
aF7.367601369624936
aF9.50347367700033
aF5.3393459843528035
aF5.375218291720557
aF3.7110905990821266
aF4.846962906453882
aF6.282835213826729
aF4.718707521188662
aF4.0545798285538694
aF5.890452135928172
aF13.026324443321755
aF5.162196750660769
aF6.398069058032888
aF6.2339413653999145
aF5.069813672763303
aF8.005685980141607
aF4.3415582874959
aF5.677430594868383
aF5.613302902235773
aF19.849175209655186
aF10.38504751698838
aF4.120919824333214
aF3.8567921316998763
aF7.392664439080363
aF3.82853674643502
aF3.5644090538016826
aF4.200281361171619
aF6.836153668548832
aF4.87202597590931
aF5.307898283278519
aF5.643770590647364
aF42.37964289814863
aF32.415515205480006
aF22.551387512811743
aF13.087259820144936
aF5.323132127484314
aF4.059004434847338
aF3.4948767422129094
aF5.330749049587212
aF3.8666213569495085
aF4.502493664319445
aF4.83836597168829
aF4.474238279054589
aF4.010110586420524
aF9.145982893806831
aF6.781855201165854
aF4.217727508524149
aF5.153599815895177
aF7.689472123272026
aF5.62534443063214
aF4.961216737997347
aF4.397089045362918
aF5.332961352733946
aF4.668833660099153
aF14.50470596750256
aF4.640578274834297
aF3.776450582198777
aF3.8123228895665306
aF4.048195196935012
aF4.084067504302766
aF3.8199398116694283
aF4.355812119039001
aF3.791684426404572
aF3.9275567337726898
aF7.56342904115354
aF4.399301348509653
aF5.435173655881044
aF4.371045963244796
aF4.606918270613278
aF6.342790577987216
aF6.278662885354606
aF4.414535192715448
aF5.45040750008684
aF5.286279807453866
aF4.822152114819801
aF4.858024422187555
aF4.893896729555308
aF4.529769036921607
aF5.465641344292635
aF4.401513651656387
aF5.037385959026324
aF4.0732582663904395
aF4.0091305737578296
aF5.245002881129949
aF6.080875188500613
aF3.4167474958585444
aF5.552619803233938
aF5.088492110599873
aF3.524364417961806
aF3.960236725331015
aF5.396109032703862
aF6.631981340075981
aF3.767853647433185
aF4.803725954804577
aF9.339598262188701
aF14.175470569573918
aF8.711342876921663
aF7.947215184286506
aF6.783087491649894
aF16.91895979905439
aF14.254832106412323
aF5.290704413747335
aF4.526576721112178
aF4.162449028478477
aF5.998321335852779
aF5.734193643219442
aF4.57006595058283
aF5.505938257953858
aF3.341810565313608
aF4.0776828726839085
aF9.713555180072035
aF3.5494274874172334
aF4.8852997947897165
aF4.92117210215747
aF5.157044409525952
aF5.892916716896252
aF3.528789024255275
aF5.464661331629941
aF5.500533638997695
aF4.636405946362174
aF6.272278253735749
aF4.808150561098046
aF3.244022868459979
aF4.279895175831371
aF3.515767483196214
aF4.151639790566151
aF3.6875120979320855
aF5.823384405307479
aF6.959256712679235
aF5.795129020042623
aF4.831001327406739
aF14.26687363480869
aF5.8027459421455205
aF4.538618249508545
aF14.07449055691086
aF6.310362864250237
aF6.0462351716169
aF8.282107478992657
aF4.217979786345495
aF4.853852093715432
aF4.789724401082822
aF7.625596708460762
aF10.66146901583943
aF4.997341323186447
aF5.633213630556384
aF3.5690859379164976
aF3.5049582452838877
aF13.640830552688385
aF4.776702860023761
aF4.012575167388604
aF4.648447474758541
aF4.184319782124476
aF3.8201920894907744
aF4.556064396861075
aF4.191936704227373
aF4.527809011596219
aF5.263681318966519
aF5.799553626336092
aF7.735425933710758
aF6.171298241072691
aF8.607170548449176
aF3.443042855798012
aF3.978915163167585
aF4.214787470536066
aF7.750659777916553
aF4.086532085270846
aF12.722404392669887
aF5.35827670001072
aF3.9941490073733803
aF4.230021314741862
aF3.565893622107069
aF6.7017659294861005
aF4.137638236844396
aF11.273510544237979
aF8.409382851595183
aF4.045255158946929
aF6.88112746632487
aF4.016999773682073
aF4.152872081050191
aF4.7887443884201275
aF11.024616695810437
aF13.060489003185467
aF4.996361310523753
aF3.932233617887505
aF15.268105925296368
aF6.30397823263138
aF5.839850539997315
aF3.675722847357065
aF3.9115951547255463
aF10.647467462117675
aF3.5833397694595988
aF4.919212076832082
aF4.655084384198744
aF3.1909566915610412
aF10.826828998956444
aF4.362701306300551
aF6.598573613676308
aF13.4344459210688
aF6.570318228411452
aF3.8061905357690193
aF9.04206284315569
aF10.677935150529265
aF9.41380745789229
aF4.34967976524149
aF5.985552072615064
aF3.8214243799748147
aF5.357296687348025
aF4.193168994711414
aF3.8290413020777123
aF12.964913609477662
aF4.800785916815585
aF15.336658224221537
aF6.572530531557277
aF4.508402838917391
aF4.844275146286236
aF6.5801474536601745
aF6.5160197610275645
aF9.251892068405141
aF8.687764375770712
aF10.523636683145014
aF6.059508990496397
aF4.695381297859058
aF7.131253605235543
aF4.967125912595293
aF6.202998219967412
aF4.138870527327526
aF4.974742834698191
aF3.9106151420619426
aF29.946487449524284
aF44.1823597569437
aF37.718232064287804
aF28.654104371622452
aF18.689976678953826
aF9.925848986289566
aF3.9617212936354917
aF5.4975936010087025
aF3.9334659083706356
aF6.569338215747848
aF3.9052105231057794
aF4.141082830474261
aF3.476955137839468
aF11.512827445236326
aF3.448699752574612
aF3.4845720599423657
aF3.6204443673104834
aF7.15631667469097
aF3.8921889820467186
aF4.028061289414836
aF6.063933596789866
aF3.8998059041496163
aF4.535678211519553
aF5.571550518890945
aF6.1074228262605175
aF6.0432951336279075
aF5.879167440994934
aF5.115039748359777
aF21.75091205578792
aF11.586784363118568
aF8.822656670476135
aF4.358528977827518
aF5.1944012851981824
aF38.630273592687445
aF37.46614590005083
aF28.302018207385117
aF20.337890514723767
aF10.87376282205696
aF5.209635129403978
aF4.345507436768457
aF5.381379744139849
aF3.917252051502146
aF4.053124358870264
aF4.988996666241292
aF4.724868973607954
aF7.9607412809873495
aF3.8966135883401876
aF5.632485895714126
aF4.068358203076059
aF5.004230510447087
aF4.140102817811567
aF4.775975125181503
aF27.01184743263002
aF17.147719739961758
aF10.28359204730441
aF4.219464354649972
aF5.555336662022455
aF4.091208969384752
aF6.227081276760146
aF9.96295358414136
aF6.798825891497472
aF5.234698198859405
aF10.070570506244621
aF4.306442813591275
aF3.742315120956846
aF4.3781874283267825
aF4.8140597356959915
aF4.949932043064109
aF4.185804350428953
aF6.321676657804346
aF4.057548965163733
aF23.993421272603882
aF16.52929357994435
aF6.565165887275725
aF4.801038194636931
aF3.3369105019992276
aF7.672782809382625
aF3.908655116736554
aF3.544527424102853
aF4.780399731474972
aF3.6162720388383605
aF5.952144346214482
aF4.288016653576051
aF8.123888960957629
aF6.559761268319562
aF4.095633575678221
aF6.131505883053251
aF7.067378190424279
aF11.803250497809131
aF3.6391228051470534
aF10.374995112539182
aF9.410867419903298
aF5.546739727256863
aF32.18261203472139
aF23.618484342057855
aF15.054356649394322
aF5.1902289567260596
aF6.226101264097451
aF7.861973571471026
aF4.497845878826411
aF3.733718186191254
aF15.269590493600845
aF5.9054628009344015
aF12.441335108325802
aF6.077207415670273
aF6.813079723040573
aF5.248952030402506
aF3.484824337763712
aF4.920696645136559
aF6.956568952511589
aF7.092441259879706
aF4.22831356723691
aF19.46418587465996
aF11.800058181999702
aF4.935930489342354
aF3.97180279670647
aF3.507675104072405
aF4.143547411442341
aF5.579419718815188
aF4.915292026180396
aF6.251164333552879
aF13.187036640945735
aF7.72290894829348
aF3.6587812556463177
aF12.294653563045358
aF9.330525870402198
aF4.766398177753217
aF4.402270485119516
aF3.6381427924843592
aF4.774015099856115
aF5.509887407226415
aF4.3457597145898035
aF4.98163202195974
aF4.7175043293264025
aF5.053376636695248
aF4.389248944060455
aF5.125121251430755
aF14.860993558833798
aF11.596865866189546
aF5.332738173534381
aF3.7686104808963137
aF3.7044827882637037
aF4.2403550956332765
aF6.276227403008306
aF4.812099710370603
aF3.9479720177350828
aF3.5838443251013814
aF4.01971663247059
aF6.555588939847439
aF4.591461247207917
aF3.527333554571669
aF4.063205861941242
aF6.499078169317727
aF6.234950476684389
aF4.970822784047414
aF3.9066950914111658
aF6.9425673987898335
aF4.078439706147037
aF4.514312013516246
aF3.7501843208810897
aF7.686056628263032
aF7.421928935629694
aF5.257801242989444
aF6.493673550361564
aF3.5295458577184036
aF6.4654181650967075
aF3.5012904724535474
aF4.537162779824939
aF4.473035087192329
aF4.108907394558628
aF9.144779701944572
aF32.38065200939673
aF22.11652431672701
aF14.45239662406675
aF9.688268931417042
aF4.82414123876697
aF7.060013546142727
aF3.695885853498112
aF4.131758160867321
aF9.367630468253992
aF9.50350277562211
aF5.039375082973493
aF8.975247390355435
aF8.311119697720642
aF7.14699200508403
aF15.082864312480524
aF8.31873661982354
aF3.654608927174195
aF11.390481234569961
aF3.7263535419097025
aF6.262225849286551
aF3.9980981566459377
aF4.233970464014419
aF8.869842771398908
aF3.8057150787481078
aF4.741587386119136
aF4.477459693485798
aF3.7133320008506416
aF5.249204308223852
aF3.385076615584694
aF4.420948922956086
aF3.5568212303205655
aF5.19269353769414
aF4.4285658450589835
aF7.8644381524391065
aF5.600310459798493
aF4.536182767162245
aF5.672055074534001
aF10.507927381919217
aF4.243799689264051
aF4.879671996633988
aF5.315544304003197
aF5.251416611370587
aF4.3872889187350665
aF3.8231612261006376
aF4.859033533472029
aF4.094905840836873
aF3.7307781482031714
aF4.1666504555723805
aF7.702522762952867
aF6.338395070315528
aF6.174267377682554
aF6.9101396850528545
aF4.446011992411513
aF4.781884299780359
aF4.117756607145566
aF4.653628914515139
aF4.289501221881437
aF8.425373529264107
aF4.0612458366158535
aF4.397118143984699
aF8.532990451367368
aF5.768862758724936
aF5.004735066089779
aF4.940607373457169
aF3.7764796808205574
aF14.612351988227601
aF9.648224295577165
aF4.384096602925638
aF4.0199689102919365
aF6.355841217668058
aF4.291713525028172
aF7.627585832407931
aF6.7634581397724105
aF4.599330447132161
aF5.03520275450137
aF13.171075061898591
aF4.006947369232876
aF5.342819676605359
aF7.478691983980752
aF5.014564291339411
aF5.050436598707165
aF5.986308906078193
aF4.7221812134412176
aF9.358053520825706
aF4.593925828175998
aF3.829798135540841
aF33.26567044301555
aF23.90154275034911
aF17.237415057692488
aF9.87328736503332
aF4.8091596723825205
aF3.6450319797459088
aF11.380904287141675
aF10.91677659450761
aF7.152648901861539
aF5.288521209222381
aF16.02439351662906
aF6.060265823960435
aF6.996138131331463
aF8.832010438705765
aF5.067882746059695
aF4.003755053423447
aF3.939627360790837
aF3.775499668157863
aF3.811371975525617
aF4.747244282896645
aF3.5831165902600333
aF7.718988897642703
aF4.054861204996996
aF7.390733512376755
aF6.026605819739416
aF3.462478127097711
aF4.198350434468011
aF3.734222741833946
aF6.370095049211159
aF10.105967356592373
aF3.4418396639357525
aF5.67771197131151
aF4.713584278675626
aF15.649456586083033
aF5.385328893413316
aF7.1212012007872545
aF5.857073508150279
aF4.692945815513667
aF4.528818122880693
aF14.064690430283008
aF4.800562737616929
aF6.036435044989048
aF4.072307352349526
aF12.80817965974893
aF3.7440519670835783
aF3.6799242744509684
aF6.215796581827817
aF5.051668889191205
aF5.087541196558959
aF4.723413503925258
aF11.959285811319205
aF4.195158118658583
aF3.53103042602379
aF3.866902733392635
aF4.702775040763299
aF11.738647348156519
aF3.774519655495169
aF5.610391962869471
aF5.24626427023577
aF7.2821365776108
aF6.618008884976007
aF5.353881192339031
aF3.7897534997009643
aF4.1256258070698095
aF4.0614981144371995
aF7.4973704218173225
aF3.5332427291705244
aF3.4691150365379144
aF3.604987343906032
aF7.540859651287974
aF4.976731958646269
aF6.812604266020571
aF7.848476573391963
aF4.184348880746256
aF4.320221188114374
aF3.35609349547849
aF9.491965802868435
aF4.02783811021618
aF8.863710417601396
aF3.599582724949869
aF10.635455032343089
aF7.271327339698473
aF4.207199647054949
aF5.5430719544274325
aF3.5789442617879104
aF7.4148165691694885
aF3.750688876523782
aF4.986561183895901
aF24.022433491332777
aF14.658305798666333
aF6.694178106004983
aF4.230050413363642
aF8.56592272074704
aF8.301795028113702
aF10.337667335488732
aF4.273539642834294
aF21.70941195026535
aF11.745284257596722
aF5.081156564940102
aF7.117028872315132
aF4.552901179673427
aF5.88877348704591
aF5.0246457944103895
aF5.4605181017795985
aF3.7963904091411678
aF11.43226271653657
aF8.868135023894865
aF6.904007331255343
aF7.339879638624552
aF6.975751945990851
aF4.011624253347691
aF15.747496560758009
aF8.08336886809775
aF10.219241175473144
aF19.25511348287364
aF11.490985790213017
aF4.626858097555669
aF7.462730404933609
aF7.598602712301727
aF4.934475019659658
aF7.070347327035051
aF4.0062196343915275
aF3.3420919417567347
aF5.477964249132128
aF3.4138365564922424
aF10.14970886388437
aF15.185581171270314
aF8.221453478612602
aF4.057325785965077
aF9.693198093353203
aF4.5290704007020395
aF7.264942708079616
aF4.300815015436456
aF14.236687322840226
aF7.7725596301843325
aF4.20843193753899
aF5.7443042449122
aF4.88017655227668
aF11.216048859667353
aF6.551921167018008
aF7.887793474390492
aF9.62366578176443
aF7.3595380891238165
aF6.995410396490115
aF11.131282703872785
aF6.46715501122344
aF11.003027318607565
aF6.238899625957856
aF5.174771933321608
aF3.9106442406846327
aF5.146516548056752
aF4.982388855423778
aF4.518261162789713
aF21.354133470218585
aF11.290005777549595
aF5.325878084895521
aF4.161750392258909
aF5.497622699631393
aF16.533495007039164
aF10.269367314383999
aF8.305239621744477
aF4.8411119290994975
aF3.3769842364617944
aF3.7128565438306396
aF3.7487288511983934
aF3.384601158564692
aF5.820473465941177
aF5.556345773307839
aF10.49221808069342
aF6.22809038804553
aF4.663962695407463
aF3.99983500277267
aF5.435707310145517
aF4.571579617509997
aF7.007451924886482
aF15.543324232285158
aF9.17919653962963
aF7.915068846992654
aF8.55094115436259
aF6.486813461722704
aF6.8226857690915494
aF5.7585580764553015
aF3.6944303838154156
aF3.830302691183533
aF5.166174998556016
aF11.80204730594778
aF4.537919613288977
aF3.4737919206527295
aF3.9096642280219385
aF31.5455365354901
aF21.781408842822202
aF14.917281150164854
aF7.453153457505323
aF3.88902576485998
aF4.024898072228098
aF7.660770379608948
aF4.49664268696506
aF4.632514994333178
aF7.368387301710754
aF5.60425960907196
aF10.240131916456448
aF5.376004223806376
aF6.6118765311784955
aF5.447748838541884
aF8.083621145919096
aF8.419493453287942
aF4.455365760641143
aF9.391238068026723
aF4.3271103753759235
aF3.462982682740403
aF5.998854990117252
aF8.23472729749301
aF5.0705996048491215
aF4.406471912214329
aF4.64234421958281
aF4.878216526951292
aF3.614088834314316
aF4.3499611416846165
aF4.185833449051643
aF4.521705756420488
aF8.45757806380243
aF7.0934503711650905
aF4.5293226785233855
aF4.165194985889684
aF4.00106729325671
aF3.636939600623009
aF3.7728119079911266
aF4.3086842153606995
aF4.044556522727362
aF5.480428830100209
aF3.7163011374614143
aF5.5521734448357165
aF17.088045752245307
aF9.023918059583593
aF4.259790366933885
aF3.9956626743005472
aF6.63153498167776
aF6.467407289044786
aF5.2032795964078105
aF4.839151903774109
aF10.375024211161872
aF4.110896518506706
aF4.346768825875188
aF4.382641133242942
aF3.21851344060633
aF4.854385747979904
aF3.7902580553436565
aF10.826130362736876
aF4.762002670082438
aF9.797874977468382
aF5.0337472848186735
aF4.069619592182789
aF5.805491899556728
aF5.54136420692339
aF4.177236514286051
aF9.313108821672358
aF10.748981129045205
aF28.884853436478807
aF19.72072574381309
aF16.356598051168476
aF11.39247035851804
aF5.02834266586251
aF3.7642149732255348
aF4.800087280596927
aF3.4359595879595872
aF4.171831895329888
aF4.907704202700188
aF5.343576510069397
aF11.879448817460798
aF5.215321124804177
aF9.251193432186483
aF4.787065739537866
aF5.522938046908166
aF4.658810354272646
aF5.49468266164331
aF5.230554969009972
aF8.066427276387913
aF5.402299583745844
aF6.138171891116144
aF3.774044198475167
aF6.009916505850924
aF10.745788813235777
aF7.181661120590434
aF12.917533427978924
aF8.25340573532958
aF5.989278042688966
aF7.125150350060721
aF6.261022657425201
aF21.096894964846797
aF22.632767272220008
aF13.568639579554656
aF6.604511886896944
aF7.540384194267972
aF4.776256501625539
aF4.512128808992202
aF9.748001116378873
aF17.78387342377573
aF9.919745731114745
aF7.855618038474859
aF7.3914903458407935
aF6.427362653204909
aF4.463234960565387
aF4.099107267931686
aF5.334979575303805
aF4.770851882669376
aF4.706724190036766
aF4.642596497404156
aF4.278468804770455
aF10.314341112160037
aF4.3502134195059625
aF3.7860857268715336
aF4.021958034240015
aF4.057830341607769
aF16.293702649019906
aF9.929574956364377
aF5.965447263717579
aF3.6013195710766013
aF5.537191878451267
aF3.9730641858132003
aF8.708936493198053
aF4.044808800548708
aF3.480681107914279
aF4.716553415286398
aF10.052425722673433
aF5.888298030025908
aF3.824170337386022
aF7.460042644766872
aF6.595914952131352
aF5.631787259495468
aF6.66765956686686
aF3.903531874224427
aF19.93940418165039
aF11.47527648898722
aF4.511148796329508
aF4.347021103696534
aF8.682893411079931
aF4.4187657184320415
aF3.654638025796885
aF3.7905103331650025
aF4.2263826405342115
aF6.262254947909241
aF6.5981272552780865
aF3.433999562634199
aF9.069871870022325
aF3.5057441773697064
aF3.8416164847385517
aF5.877488792113581
aF6.013361099481699
aF4.549233406843996
aF3.7851057142088393
aF4.720978021579867
aF4.856850328947985
aF4.192722636313192
aF4.528594943682037
aF6.36446725105634
aF13.500339558449923
aF7.536211865795849
aF3.572084173149051
aF5.7079564805244445
aF6.6438287878954725
aF3.4797010952515848
aF4.915573402624432
aF8.251445710004191
aF3.787318017355574
aF3.5231903247222363
aF6.259062632099813
aF5.394934939464292
aF7.830807246840777
aF4.466679554196162
aF5.202551861566462
aF5.138424168933852
aF4.47429647629906
aF3.5101687836631754
aF6.646041091042207
aF9.781913398421239
aF3.517785705766073
aF4.653658013137829
aF4.789530320505946
aF13.325402627904623
aF4.261274935239271
aF3.697147242604842
aF9.63301954999406
aF3.9688918573410774
aF3.8047641647081036
aF18.94063647213079
aF18.776508779497817
aF9.212381086830646
aF6.34825339418785
aF4.784125701549783
aF4.0199980089146266
aF21.15587031634459
aF11.591742623677419
aF8.827614931034987
aF4.663487238387461
aF7.799359545766492
aF8.235231853135701
aF5.1711041604921775
aF4.90697646785884
aF4.84284877522623
aF8.47872108260708
aF5.114593389962465
aF5.45046569733131
aF3.986338004693607
aF4.322210312062452
aF11.358082619455672
aF7.29395492680851
aF5.029827234167897
aF16.765699541374488
aF9.201571848661843
aF7.237444155867706
aF5.873316463064839
aF6.809188770228502
aF3.4450610774547386
aF4.280933384619857
aF3.816805691803893
aF9.452677998899162
aF4.088550306154502
aF16.52442261315082
aF9.060294920436718
aF3.5961672276935133
aF3.732039534868818
aF5.167911842025205
aF3.6037841492252483
aF7.1396564563510765
aF3.675528763578768
aF3.4114010707598936
aF5.44727337790755
aF4.283145685101772
aF6.019017992253794
aF19.554890299234103
aF10.290762606546195
aF5.826634913788439
aF4.262507220988482
aF4.4983795281623316
aF5.234251835328905
aF6.770124142483837
aF4.305996449696977
aF6.041868756848999
aF3.9777410640563176
aF4.113613371231622
aF17.949485678207566
aF8.885357985516748
aF5.921230292737164
aF3.657102599947393
aF11.992974907003372
aF4.628847214287816
aF8.864719521403458
aF4.400591828645702
aF3.836464135831193
aF4.072336443005042
aF5.30820875016434
aF6.144081057329458
aF8.179953364477115
aF8.215825671653874
aF3.5516979788990284
aF5.28757028605105
aF5.623442593223444
aF13.959314900279423
aF4.295187207597337
aF7.631059514726076
aF9.166931821881008
aF4.302804129129072
aF3.5386764363174734
aF3.9745487434884126
aF3.5104210506724485
aF3.5462933578492084
aF4.482165665012872
aF5.418037972176535
aF6.553910279337288
aF8.389782586487854
aF3.5256548937359184
aF7.96152720084865
aF6.197399508051603
aF4.833271815248736
aF8.369144122374564
aF14.505016429462557
aF6.6408887367542775
aF3.3767610439790587
aF4.812633351135446
aF3.848505658326758
aF3.684377965506428
aF15.920250272505655
aF9.756122579772637
aF8.491994886968314
aF7.427867194161081
aF6.363739501353848
aF34.09961180812752
aF33.03548411532029
aF27.271356422581448
aF18.00722872989354
aF11.443101037166343
aF4.678973344442056
aF6.1148456515984435
aF6.850717958765017
aF4.386590265978157
aF3.6224625731665583
aF3.758334880341863
aF6.0942071874851536
aF6.530079494656093
aF6.965951801827032
aF3.801824109050358
aF7.137696416179097
aF5.0735687233864155
aF3.809441030582093
aF7.7453133377021
aF5.28118564491524
aF6.517057952074538
aF4.252930259284767
aF3.4888025664731686
aF5.924674873615004
aF3.6605471808252332
aF3.796419488000538
aF5.732291795149649
aF3.5681641023584234
aF4.304036409524997
aF5.139908716690115
aF5.27578102386542
aF13.311653330925765
aF10.247525638147636
aF3.4833979454233486
aF10.81927025249388
aF6.6551425597317575
aF4.291014866943442
aF5.826887174098374
aF3.4627594813100586
aF4.598631788470811
aF4.834504095644661
aF5.47037640281269
aF5.1062487099952705
aF3.5421210171953135
aF3.9779933243662526
aF3.5138656315502885
aF8.549737938654289
aF4.285610245893622
aF3.721482553079113
aF6.1573548602209485
aF4.393227167423902
aF4.729099474596296
aF4.764971781773056
aF6.400844088926533
aF4.636716396129486
aF6.872588703274232
aF4.708461010483006
aF5.144333317653945
aF4.0802056248467125
aF3.4160779320336587
aF17.951950238999416
aF18.88782254616308
aF10.123694853467896
aF4.459567160727602
aF5.895439467883989
aF3.731311775092763
aF3.767184082269523
aF4.803056389431731
aF4.338928696615767
aF5.374801003777975
aF3.6106733109809284
aF5.34654561813295
aF5.38241792530971
aF4.118290232505387
aF8.254162539622484
aF6.290034846828348
aF9.525907153958542
aF9.061779461142578
aF8.597651768326614
aF3.733524075574678
aF5.869396382720879
aF5.805268689899094
aF10.74114099700455
aF5.777013304254069
aF3.712885611461388
aF4.348757918629417
aF9.684630225729052
aF5.420502532968385
aF4.756374840155331
aF3.792247147346643
aF3.728119454524858
aF3.5639917617045285
aF11.299864068769239
aF10.435736375959095
aF4.171608683227532
aF6.207480990375188
aF6.443353297549038
aF8.479225604696694
aF4.215097911936027
aF3.5509702191229735
aF9.286842526216788
aF5.1227148334546655
aF11.158587140544114
aF8.19445944776453
aF5.6303317549791245
aF5.866204062152974
aF28.602076368999406
aF24.037948676243104
aF22.373820983444602
aF12.309693290768337
aF4.445565598060057
aF8.581437905177154
aF5.517310212399025
aF6.1531825195670535
aF7.98905482671762
aF3.5249271339598636
aF4.260799441126437
aF5.096671748291556
aF4.532544055477047
aF6.1684163626305235
aF5.204288669821835
aF16.640160976832703
aF16.476033284012374
aF7.511905591320101
aF5.1477778985317855
aF8.283650205663434
aF3.719522512907133
aF5.5553948200577
aF5.291267127238825
aF17.52713943423805
aF8.663011741544324
aF6.998884048745822
aF7.434756355916761
aF7.570628663092066
aF9.706500970238267
aF3.942373277499428
aF6.778245584635442
aF3.914117891854403
aF5.849990199003514
aF5.38586250618755
aF4.821734813373041
aF5.45760712054107
aF14.493479427586863
aF5.3293517348975
aF3.9652240420946328
aF4.801096349259751
aF4.536968656440877
aF5.6728409636016295
aF4.408713270797307
aF5.34458557796097
aF12.480457885034411
aF4.016330192334863
aF6.252202499479608
aF5.588074806666555
aF7.723947113812756
aF5.459819421022985
aF3.895691728223028
aF9.131564035324118
aF4.967436342561996
aF4.503308649746032
aF5.739180956905329
aF4.375053264102462
aF5.510925571263215
aF10.346797878370126
aF5.182670185622555
aF6.618542492778943
aF3.854414799996448
aF3.9902871071717527
aF4.726159414338326
aF5.962031721497624
aF6.797904028662742
aF4.033776335880248
aF4.169648643055552
aF10.905520950134814
aF4.041393257411983
aF5.1772655645727355
aF7.913137871710205
aF7.549010178892786
aF4.184882486119022
aF5.820754793272499
aF3.756627100479818
aF10.392499407560535
aF9.428371714751847
aF4.064244022007188
aF4.000116329185403
aF9.835988636277762
aF4.271860943536012
aF4.807733250705496
aF4.543605557886622
aF12.279477864951332
aF5.015350172234321
aF4.551222479418357
aF5.787094786577654
aF19.922967093549232
aF12.758839400830766
aF9.494711708055547
aF4.730584015302156
aF5.566456322467275
aF3.902328629668773
aF10.038200936756766
aF4.074073244020838
aF12.209945551079727
aF5.545817858353985
aF10.081690165465261
aF4.417562472724967
aF4.1534347799060924
aF4.489307087078487
aF10.525179394167935
aF3.861051701442193
aF5.1969240086000354
aF7.83279631573896
aF6.568668622934638
aF4.804540930137591
aF4.6404132373172615
aF13.676285544363054
aF3.812157851683878
aF7.548030158806796
aF3.383902466044674
aF5.119774773196696
aF4.6556470803807315
aF4.791519387556036
aF7.127391694699327
aF4.263264001918287
aF4.599136309090682
aF12.535008616152481
aF8.070880923394725
aF7.606753230578761
aF4.742625537797721
aF12.378497844863887
aF32.01437015175543
aF23.250242459060246
aF13.786114766375249
aF5.221987073677155
aF9.057859380798618
aF4.893731688036496
aF3.6296039952321735
aF5.66547630237983
aF4.901348609568231
aF7.83722091670279
aF6.073093223905744
aF3.7089655311174283
aF6.2448378382578085
aF3.880710145469493
aF3.916582452646253
aF6.7524547597822675
aF7.688327066945931
aF3.5241993741838087
aF6.860071681312547
aF4.395943988525687
aF4.1318162957068125
aF6.667688602847193
aF12.503560909939551
aF16.339433217061014
aF14.775305524261057
aF4.911177831581881
aF3.5470501387790137
aF3.382922445958684
aF10.81879475302776
aF3.454667060312204
aF4.6905393674715015
aF4.526411674651172
aF4.262283981832297
aF6.998156288969767
aF3.6340285961960035
aF7.169900903321832
aF7.005773210501502
aF4.741645517711731
aF3.777517824903043
aF4.413390132071072
aF5.44926243923328
aF3.5851347464376886
aF3.321007053618814
aF5.456879360765015
aF5.492751667941775
aF3.6286239751461835
aF4.964496282304026
aF6.400368589460413
aF3.836240896675008
aF7.472113203799381
aF6.407985510992148
aF12.543857818080141
aF3.979730125382048
aF15.71560243238855
aF5.7514747397108295
aF3.887347046915238
aF4.723219354080356
aF6.159091661236744
aF4.6949639684353315
aF5.33083627560336
aF5.56670858277721
aF17.302580889783712
aF7.738453197100171
aF3.374325504340959
aF5.410197811488615
aF20.146070118451462
aF11.181942425759189
aF7.217814732994157
aF4.453687040211662
aF7.489559347344766
aF6.025431654543354
aF4.861303961737576
aF6.997176268883777
aF7.733048576050351
aF3.968920883282408
aF4.204793190456257
aF11.340665497529699
aF3.876537804815598
aF5.41241011197053
aF3.7482824191720283
aF10.68415472624838
aF4.220027033519727
aF3.955899340700853
aF6.191771647845599
aF8.427643954990344
aF4.263516262228222
aF5.1993885693918855
aF8.735260876517714
aF4.371133183758502
aF6.707005490901793
aF14.442877797966503
aF4.6787501052858715
aF5.3146224124539
aF4.350494719645212
aF4.586367026819062
aF6.322239333971083
aF3.7581116411856783
aF7.493983948308596
aF3.829856255539198
aF3.7657285627174133
aF5.60160086986798
aF4.537473177060747
aF7.173345484199672
aF4.2092177914200875
aF4.045090098599758
aF5.880962405750324
aF4.216834712951822
aF6.2527070200994785
aF4.288579327305342
aF5.624451634463185
aF3.6603239416690485
aF19.596196248614433
aF19.732068555789738
aF11.667940863084368
aF10.403813170280046
aF4.7396854775397514
aF12.275557784607372
aF5.811430091878719
aF5.2473023990642105
aF4.083174706258433
aF4.419047013430827
aF12.254919320494082
aF7.690791627737781
aF6.526663934932003
aF4.362536242140777
aF6.698408549284068
aF5.634280856476835
aF7.8701531636215805
aF6.506025470818713
aF4.341897778027487
aF4.077770085208613
aF3.8136423923897382
aF5.54951469954176
aF3.2853870067519892
aF5.821259313892369
aF4.657131621086592
aF4.293003928269172
aF8.128876235390635
aF5.964748542599409
aF4.400620849799452
aF4.036493156982033
aF4.272365464155882
aF5.70823777131227
aF4.244110078510857
aF5.179982385674521
aF5.015854692854191
aF5.551727000023675
aF8.487599307158234
aF4.2234716143975675
aF4.559343921569962
aF3.2952162287656392
aF5.131088535916206
aF6.466960843074048
aF11.602833150176593
aF4.838705457452306
aF14.874577764483547
aF9.010450071746163
aF5.346322378976765
aF8.082194686114235
aF7.918066993293905
aF4.953939300514321
aF6.689811607666343
aF6.525683914846013
aF7.161556222014042
aF11.197428529132594
aF4.2333008364112175
aF3.469173143599619
aF3.8050454507720133
aF7.640917757893476
aF3.7767900651269883
aF4.812662372289196
aF10.7485346793801
aF4.984406986641261
aF6.220279293800559
aF4.156151601007878
aF7.092023908142437
aF16.7278962151795
aF7.963768522484315
aF7.199640829672717
aF4.335513136891677
aF4.971385444059706
aF5.907257751223369
aF4.643130058419047
aF5.179002365588531
aF13.414874672645965
aF3.550746979966789
aF5.2866192871188105
aF3.7224915943188535
aF4.558363901483972
aF10.494236208574875
aF5.730108515821485
aF5.965980822995334
aF3.8018531302041083
aF4.7377254373677715
aF4.973597744541621
aF5.009470051718381
aF5.945342358882044
aF9.181214666012238
aF4.117086973263213
aF4.352959280437062
aF7.588831587567256
aF5.124703894780396
aF6.560576201936783
aF4.096448509149923
aF6.632320816290303
aF3.6681931235107186
aF18.804065430467745
aF8.739937737791479
aF5.175810045020626
aF6.011682352185744
aF10.74755465929411
aF4.483426966562547
aF6.119299273716024
aF14.955171580764727
aF5.991043888072454
aF5.3269161952594
aF6.162788502424519
aF7.8986608095765405
aF5.934533116782404
aF4.170405423985358
aF5.106277731149021
aF10.042150038254476
aF3.478022345527279
aF4.113894652695308
aF4.449766959867702
aF6.185639267019724
aF25.421511573917087
aF26.057383881085116
aF40.09325618805815
aF30.929128495368786
aF23.465000802654686
aF25.300873109805252
aF15.836745417120255
aF6.572617724432348
aF3.508490031654219
aF15.944362338650535
aF6.380234645966993
aF3.8161069531815883
aF5.35197926033652
aF4.387851567527832
aF4.623723874701682
aF5.759596181862435
aF4.995468489050836
aF16.931340796054428
aF9.567213103338872
aF3.6030854106029437
aF8.038957717715675
aF5.2748300249331805
aF5.110702332112851
aF6.546574639269238
aF9.582446946402342
aF3.518319253667869
aF5.354191560818435
aF3.890063868017023
aF4.625936175183597
aF4.361808482364722
aF7.497680789496371
aF7.433553096674586
aF6.569425403864443
aF5.105297711063031
aF4.441170018249977
aF3.977042325434013
aF3.7129146326151385
aF20.248786939551792
aF10.88465924686534
aF5.72053155411777
aF4.156403861317813
aF6.492276168461103
aF4.028148475674243
aF4.364020782846637
aF5.099893090013211
aF5.73576539718124
aF4.071637704382738
aF3.8075100115638634
aF3.543382318744989
aF5.179254625898466
aF7.615126933040301
aF7.650999240217061
aF7.486871547396731
aF5.722743854599685
aF4.158616161799728
aF6.494488468943018
aF4.830360776144516
aF3.566233083340194
aF4.002105390511133
aF3.537977697695169
aF12.173850004746782
aF4.909722312029771
aF10.045594619132316
aF5.58146692637456
aF4.717339233564417
aF5.153211540735356
aF18.089083847724396
aF10.324956155014661
aF6.060828462253994
aF4.896700769448216
aF4.432573076632252
aF6.168445383784274
aF3.604317690998869
aF6.440189998134883
aF4.476062305340747
aF9.811934612440382
aF3.6478069197073637
aF6.3836792268448335
aF3.919551534057973
aF4.555423841226002
aF5.59129614838821
aF3.8271684555911634
aF3.6630407627708337
aF5.598913069919945
aF4.834785377108346
aF3.3706576843069342
aF3.606529991480784
aF6.842402298610978
aF4.078274605828483
aF7.514146912955766
aF11.650019220072863
aF3.7858915273645835
aF3.921763834539888
aF10.65763614161915
aF6.293508448859939
aF13.929380755926104
aF7.065253063203272
aF7.201125370378577
aF4.336997677597537
aF7.472869984729186
aF4.008742291956878
aF3.544614599140914
aF4.180486906308943
aF4.416359213482792
aF3.452231520674104
aF4.188103827840678
aF3.7239761350247136
aF5.3598484421781905
aF7.695720749321481
aF3.531593056559359
aF5.267465363711381
aF4.003337670907058
aF4.239209978080908
aF6.475082285225653
aF8.51095459237331
aF5.146826899599546
aF4.382699206787947
aF15.418571513804636
aF8.05444382108908
aF3.6903161283298687
aF5.42618843548189
aF11.362060742572794
aF5.297933049838321
aF6.133805357003439
aF6.969677664168557
aF3.7055499713933386
aF14.841422278408572
aF6.277294585710479
aF3.613166892926529
aF10.349039200005791
aF4.784911507264042
aF6.020783814423339
aF3.3566561216393893
aF6.192528428775404
aF8.528400735918694
aF8.764273043092544
aF3.4001453503478842
aF4.336017657511547
aF5.771889964667935
aF5.007762271856336
aF3.943634579049103
aF15.079506886064337
aF5.61537919337934
aF8.751251500510989
aF5.68712380773286
aF5.822996114908165
aF4.458868422105297
aF20.194740729053592
aF10.530613036371506
aF3.8664853436457634
aF8.20235765075995
aF70.63822995702867
aF68.3741022642389
aF59.50997457154517
aF50.245846878857265
aF41.28171918616499
aF33.81759149345089
aF23.953463800771715
aF15.289336108075076
aF8.225208415355155
aF5.161080722577026
aF8.296953029708675
aF3.632825336953829
aF4.268697644121858
aF4.004569951302983
aF7.640442258427356
aF3.7763145656608685
aF5.812186872808525
aF7.248059179964912
aF6.983931487146037
aF4.8198037943548115
aF4.555676101535937
aF6.791548408680683
aF5.027420715883636
aF4.563293023067672
aF3.599165330258984
aF3.435037637438654
aF4.670909944597952
aF4.506782251777622
aF6.9426545589194575
aF9.778526866055472
aF5.81439917329044
aF6.150271480462834
aF5.986143787642504
aF14.522016094695573
aF7.9578884019683755
aF5.8937607091756945
aF5.129633016364096
aF7.565505323505931
aF3.8013776307379885
aF4.437249937906017
aF3.8731222450915084
aF4.108994552265358
aF14.044866859298054
aF10.280739166530111
aF10.91661147369814
aF6.052483780946204
aF4.188356088150613
aF4.3242283953259175
aF3.560100702514319
aF3.3959730096939893
aF5.73184531683728
aF4.167717624037323
aF4.403589931211172
aF10.8394622382948
aF7.175334545525402
aF6.211206852716714
aF3.7470791599298536
aF6.082951467073144
aF4.018823774280463
aF3.8546960814601334
aF3.590568388641259
aF4.526440695804922
aF18.06231300278523
aF7.9981853101089655
aF4.434057617338112
aF4.269929924517783
aF8.305802231636335
aF4.441674538869847
aF5.5775468460306
aF4.713419153220457
aF3.7492914604117686
aF4.785163767573977
aF3.9210360747638333
aF5.7569083819144
aF8.69278068904896
aF4.028652996294113
aF5.4645253034505
aF3.9003976106505434
aF4.536269917818572
aF4.772142224992422
aF8.208014532119705
aF10.143886839268816
aF5.179759146518336
aF4.315631453708193
aF5.351503760870401
aF8.887376067996229
aF12.623248375119147
aF3.659120682426874
aF3.8949929896007234
aF9.830865296691627
aF6.666737603914953
aF17.602609910933097
aF9.238482218232093
aF4.274354525481613
aF5.010226832648186
aF9.146099139765283
aF3.981971447017713
aF7.817843754139176
aF9.853716061286832
aF7.089588368504337
aF4.025460675726208
aF9.961332982817112
aF4.597205290072452
aF5.63307759723466
aF5.46894990441433
aF13.40482221147613
aF4.3406945187853125
aF6.276566825934424
aF6.112439133114094
aF6.148311440290854
aF4.084183747498173
aF3.7200560546807537
aF5.655928361829865
aF12.491800668907672
aF4.927672976195026
aF10.063545283297572
aF4.199417590560188
aF6.4352898977049335
aF6.071162204887514
aF4.407034512089012
aF4.3429068192672275
aF4.278779126445443
aF4.314651433622203
aF3.8505237408062385
aF10.386396047888411
aF5.322268355139386
aF6.558140662298683
aF3.694012969517644
aF5.7298852766653
aF4.065757583866798
aF3.601629891050834
aF7.137502198176662
aF5.573374505376705
aF3.509246812584024
aF4.245119119750598
aF3.9809914269317233
aF3.7168637341128488
aF3.4527360412939743
aF3.688608348467824
aF4.524480655632942
aF8.360352962754405
aF19.196225269774004
aF13.7320975770308
aF4.567969884341437
aF3.9038421915283834
aF4.139714498702233
aF5.175586805864441
aF3.611459113064484
aF3.3473314202456095
aF9.083203727339423
aF5.9190760345627496
aF4.154948341765703
aF15.890820648772205
aF6.726692956082843
aF4.462565263293072
aF9.898437570391252
aF3.4343098776625993
aF12.570182184706937
aF6.306054491975374
aF3.4419267991943343
aF4.477799106356542
aF3.9136714135420334
aF9.749543720634392
aF5.085416027879546
aF7.421288335022837
aF7.757160642195231
aF6.793032949386543
aF3.8289052566069586
aF4.564777563773532
aF5.100649870943016
aF5.736522178111045
aF5.172394485296536
aF6.208266792458744
aF3.544139099674794
aF4.680011406835547
aF3.4158837140312244
aF10.051756021111942
aF4.3876283283716475
aF14.523500635401433
aF6.759372942691698
aF4.995245249894651
aF8.931117557014659
aF11.966989864147763
aF5.302862171422021
aF3.3387344786278845
aF4.774606785784272
aF8.3104790929101
aF4.746351400139247
aF4.282223707323283
aF3.618096014510229
aF5.053968321666616
aF4.3898406288535625
aF4.325712936031778
aF4.761585243202717
aF3.7974575503940287
aF4.433329857562057
aF7.369202164696617
aF3.4050744719315844
aF5.64094677907633
aF5.176819086260366
aF7.5126913934036565
aF9.148563700557133
aF4.084436007808108
aF4.120308314984868
aF3.9561806221645384
aF4.792052929329657
aF8.62792523645112
aF4.163797543693363
aF9.899669850787177
aF13.835542157907184
aF4.971414465213456
aF4.707286772394582
aF6.743159079542238
aF13.87903138661568
aF4.514903693929227
aF8.75077600104487
aF7.286648308243457
aF5.622520615444955
aF13.6583929225053
aF4.694265229813027
aF12.930137536870461
aF4.766009844166547
aF12.101882151237078
aF5.337754458512791
aF4.973626765695371
aF5.6094990728634
aF3.8453713800663536
aF7.481243687190727
aF11.217115994313644
aF6.152988301564619
aF5.288860608754476
aF5.224732915932691
aF3.4606052231356443
aF6.596477530267293
aF9.332349837404763
aF7.868222144603351
aF5.004094451822311
aF5.139966758997616
aF5.575839066168555
aF12.911711373239086
aF3.4475836805540894
aF3.8834559877250285
aF3.4193282949090644
aF6.955200602034893
aF4.391072909249488
aF8.126945216372405
aF4.9628175235957315
aF5.198689830769581
aF10.83456213786485
aF7.870434445085266
aF4.306306752314413
aF12.242179059376213
aF5.9780513666446495
aF5.713923673825775
aF4.549795981019997
aF3.585668288211309
aF3.9215405953837035
aF3.9574129025604634
aF5.59328520971394
aF10.129157516825217
aF5.265029824073281
aF5.5009021312471305
aF3.4367744384544494
aF4.272646745619568
aF5.60851905277741
aF4.044391359977453
aF3.680263667160034
aF5.71613597430769
aF6.5520082814728084
aF3.7878805886903137
aF7.0237528958205075
aF4.559625203033647
aF6.595497510181303
aF4.031369817395898
aF8.167242124512995
aF5.903114431723225
aF3.8389867389305437
aF8.774859046036
aF3.5107313532898843
aF4.346603660455003
aF24.382475967340724
aF25.218348274505843
aF16.754220581806294
aF9.790092889084917
aF3.9259651963475335
aF13.961837503378774
aF4.397709810695233
aF6.733582117838523
aF7.369454425006552
aF5.205326732215326
aF4.541199039402272
aF5.077071346571756
aF6.0129436537354195
aF6.5488159609049035
aF3.684688268123864
aF5.72056057527152
aF4.656432882464287
aF5.692305189626495
aF7.828177496772696
aF4.764049803994567
aF5.799922111156775
aF4.635794418350997
aF7.471666725487012
aF7.807539032659406
aF5.243411339874001
aF11.579283646959084
aF5.315155954227521
aF5.151028261407191
aF12.286900568480633
aF7.422772875728697
aF3.758645182959299
aF3.19451749014479
aF20.630389797068347
aF25.76626210417089
aF15.402134411498992
aF6.138006718811084
aF3.673879026024224
aF5.70975133317188
aF5.145623640357371
aF5.681495947526855
aF6.317368254694884
aF8.55324056183963
aF3.4891128690906044
aF3.4249851762688195
aF4.560857483429572
aF6.196729790583049
aF6.5326020977554435
aF4.068474404968583
aF11.604346712036204
aF3.5402190193308343
aF3.8760913265032286
aF9.311963633601408
aF8.047835940797086
aF5.783708248007315
aF10.71958055511277
aF8.355452862324455
aF4.191325169562333
aF6.127197476711444
aF5.463069783898391
aF3.8989420910984336
aF4.534814398266462
aF6.070686705421394
aF3.8065590126316238
aF3.8424313198083837
aF7.878303626926936
aF5.314175934141531
aF4.350048241332843
aF3.8859205485168786
aF3.9217928556936386
aF8.35766516280637
aF7.193537470000592
aF4.229409777221008
aF4.665282084391947
aF4.101154391577438
aF4.037026698755653
aF3.672899005938234
aF5.308771313091711
aF4.844643620275747
aF5.280515927446686
aF4.016388234642363
aF6.652260541781288
aF8.78813284892749
aF3.4240051561828295
aF4.259877463347948
aF3.8957497705305286
aF4.631622077697102
aF3.667494384888414
aF6.903366692018608
aF5.039238999223016
aF4.975111306401232
aF6.910983613550343
aF7.946855920712551
aF4.682728227937332
aF7.018600535080623
aF6.0544728422719345
aF4.590345149470522
aF5.126217456640006
aF3.9620897638342285
aF4.197962071008078
aF10.633834378091706
aF14.769706685208803
aF6.705578992503433
aF4.841451299707842
aF4.077323606896243
aF14.513195913921663
aF4.649068221242487
aF3.28494052843962
aF4.920812835593097
aF17.95668514258068
aF10.092557449872402
aF7.528429757086997
aF10.164302064225922
aF4.300174371488538
aF3.736046678674029
aF5.971918985818775
aF7.307791292976617
aF5.843663600175205
aF24.67953590707839
aF14.815408214399213
aF5.85128052170694
aF4.187152828908438
aF7.423025136038632
aF5.95889744323722
aF5.394769750422711
aF6.130642057589284
aF5.066514364782051
aF4.302386671970453
aF4.738258979141392
aF6.874131286287593
aF5.910003593478905
aF6.645875900645478
aF6.5817482078236935
aF4.117620515036833
aF4.553492822207772
aF4.389365129387443
aF5.925237436542375
aF6.461109743711859
aF8.296982050862425
aF13.532854357963515
aF6.868726665237773
aF4.5045989724494575
aF4.140471279632038
aF5.176343586794246
aF4.5122158939811925
aF3.4480882011739595
aF9.083960508269229
aF5.119832815504196
aF4.555705122689687
aF3.5915774298809993
aF5.827449737025745
aF11.16332204412538
aF11.499194351297774
aF7.935066658526921
aF4.070938965760433
aF5.506811272916821
aF5.5426835800935805
aF4.878555887280527
aF7.814428194415086
aF4.150300501645688
aF27.2861728084863
aF27.422045115661604
aF17.557917422982428
aF13.093789730224671
aF5.129662037517846
aF11.965534344595653
aF3.9014066518902837
aF3.9372789590670436
aF7.173151266197237
aF5.735872307329508
aF14.471744614659329
aF6.807616921988917
aF4.343489229318578
aF3.6793615366482655
aF6.315233843977083
aF8.05110615130593
aF3.9869784586351074
aF4.022850765964051
aF5.858723073292893
aF9.094595380621683
aF5.430467687950852
aF4.266339995279878
aF3.7022123026088707
aF16.838084609937084
aF11.173956917266366
aF4.009829224595734
aF9.745701531924368
aF8.181573839253417
aF4.61744614658258
aF4.853318453911527
aF7.889190761244151
aF15.4250630685778
aF8.660935375908196
aF7.496807683239865
aF14.93267999057349
aF5.068552297903182
aF5.804424605235283
aF5.340296912567112
aF9.876169219900078
aF3.812041527230633
aF6.147913834563099
aF3.6837861418944726
aF6.919658449227143
aF4.755530756558585
aF4.591403063890482
aF8.627275371223334
aF4.663147678554367
aF5.199019985886423
aF4.8348922932182745
aF4.97076460055024
aF4.606636907882091
aF4.04250921521384
aF4.378381522545851
aF3.414253829877566
aF4.6501261372097815
aF7.185998444542292
aF3.721870751873439
aF5.857743059205859
aF4.293615366537438
aF4.029487673869312
aF3.9653599812012317
aF3.301232288533015
aF8.237104595866072
aF3.672976903196968
aF3.908849210528956
aF7.64472151786174
aF6.380593825193387
aF4.416466132524874
aF4.652338439856862
aF4.988210747188873
aF6.5240830545211566
aF3.3599553618523714
aF16.195827669187224
aF7.331699976517143
aF10.0675722838497
aF5.503444591180596
aF13.339316898514312
aF5.17518920584439
aF4.01106151317606
aF5.346933820508298
aF9.582806127841195
aF4.618678435172001
aF5.054550742504034
aF3.9904230498357265
aF12.726295357169647
aF3.862167664499566
aF3.59803997183144
aF3.433912279163337
aF4.069784586495416
aF4.605656893827472
aF3.441529201159142
aF8.577401508492244
aF4.913273815823345
aF13.149146123148512
aF3.4850184304773393
aF5.3208907377957075
aF5.356763045115713
aF7.7926353524335354
aF12.028507659749721
aF3.764379967077275
aF6.100252274395189
aF5.736124581715558
aF4.071996889037109
aF4.507869196356751
aF5.443741503675938
aF4.77961381099658
aF9.915486118311946
aF4.051358425637318
aF5.387230732956141
aF4.823103040276692
aF3.6589753475977886
aF56.89484765486941
aF48.03071996219751
aF38.566592269526154
aF40.60246457684434
aF33.63833688417071
aF28.874209191495083
aF21.110081498822183
aF13.345953806149282
aF4.481826113477382
aF6.017698420796023
aF12.453570728110208
aF5.689443035436398
aF4.925315342757131
aF5.161187650076954
aF3.9970599573980508
aF8.432932264714054
aF4.468804572037698
aF5.4046768793568845
aF10.64054918667216
aF3.6764214939985322
aF4.612293801317719
aF4.148166108638179
aF6.984038415955638
aF10.219910723272733
aF6.255783030596376
aF5.191655337917382
aF7.927527645234932
aF3.963399952558575
aF5.699272259877034
aF4.135144567198495
aF4.771016874517954
aF6.406889181836505
aF9.942761489153327
aF9.778633796473514
aF5.114506103797794
aF3.9503784111188907
aF4.386250718438532
aF7.622123025755627
aF8.057995333075269
aF10.993867640392637
aF4.029739947719008
aF6.365612255036922
aF7.801484562355654
aF6.4373568696769325
aF4.973229176998302
aF5.80910148431758
aF6.044973791637403
aF4.380846098958955
aF4.716718406278687
aF3.852590713599511
aF3.4884630209198804
aF8.624335328235247
aF4.160207635559345
aF4.796079942878805
aF14.931952250189624
aF4.867824557518816
aF8.003696864836002
aF4.53956917215919
aF4.275441479479468
aF5.8113137867981095
aF4.24718609411957
aF24.68305840142102
aF14.718930708750122
aF6.354803016077767
aF3.690675323400228
aF4.026547630719961
aF3.6624199380403297
aF16.298292245348875
aF11.034164552673701
aF24.57003685998143
aF36.005909167291065
aF36.84178147461034
aF31.37765378193535
aF38.813526089248626
aF28.749398396577817
aF19.48527070390628
aF9.421143011235472
aF5.757015318558842
aF7.592887625877211
aF6.028759933198671
aF6.76463224051804
aF6.900504547837954
aF5.936376855158869
aF3.6722491624809663
aF5.208121469799607
aF4.143993777120613
aF4.579866084440255
aF16.31573839174962
aF7.951610699077264
aF3.7874830064010894
aF5.4233553137196395
aF4.7592276210402815
aF9.995099928355557
aF5.730972235679474
aF3.966844543001116
aF6.202716850319121
aF5.138589157640126
aF4.074461464961132
aF3.510333772281683
aF5.5462060795998696
aF4.182078386921148
aF7.117950694238516
aF12.453823001553701
aF64.48969530882641
aF56.22556761615397
aF47.561439923481885
aF37.89731223081071
aF31.133184538136902
aF21.069056845466093
aF11.604929152794739
aF5.540801460120292
aF6.37667376743957
aF4.212546074761576
aF8.748418382077489
aF4.484290689401405
aF8.220162996718045
aF6.656035304039506
aF7.89190761135842
aF3.727779918682245
aF5.263652226000886
aF13.79952453331316
aF11.035396840635713
aF4.471269147961721
aF5.6071414552807255
aF6.143013762600276
aF3.578886069922646
aF4.514758377241833
aF6.650630684559928
aF5.786502991880752
aF4.422375299202031
aF3.858247606522582
aF4.69411991384186
aF4.22999222116232
aF3.76586452848278
aF3.501736835803058
aF4.237609143122427
aF3.4734814504431597
aF4.5093537577622556
aF3.6452260650830794
aF13.781098372393899
aF4.81697067972209
aF6.852842987040276
aF5.788715294361282
aF6.824587601680378
aF6.860459909000383
aF5.396332216321753
aF12.132204523635664
aF7.8680768309595805
aF4.403949138282769
aF4.139821445603047
aF9.175693752918505
aF6.11156606024133
aF4.5474383675627905
aF3.4833106748837963
aF3.919182982203438
aF3.855055289523534
aF7.690927596840083
aF5.52679990416209
aF5.262672211482368
aF6.198544518801555
aF6.834416826121014
aF5.670289133442111
aF5.706161440762116
aF4.742033748083031
aF5.577906055402309
aF7.8137783627203135
aF6.349650670041683
aF8.185522977360051
aF7.621395284680602
aF6.057267592002063
aF4.393139899323614
aF11.72901220663698
aF6.06488451396217
aF5.000756821283176
aF4.136629128604
aF3.6725014359244597
aF4.508373743243737
aF3.9442460505642885
aF3.7801183578844757
aF6.01599066520248
aF16.751862972512754
aF6.887735279841763
aF11.323607587157767
aF4.25947989448423
aF3.3953522018050535
aF5.531224509123149
aF6.1670968164426085
aF14.202969123755338
aF4.338841431084347
aF4.874713738403898
aF10.810586045718537
aF3.546458353045182
aF4.882330660364005
aF6.218202967682828
aF6.054075275003015
aF4.289947582324658
aF5.125819889643935
aF6.961692196962304
aF7.397564504281945
aF6.033436811603224
aF7.469309118921956
aF4.405181426244781
aF3.5410537335656045
aF8.176926040881426
aF5.412798348203978
aF4.548670655524802
aF7.48454296284217
aF3.420415270165904
aF5.756287577483818
aF4.092159884805369
aF4.528032192125011
aF4.16390449944538
aF3.599776806765931
aF6.935649114082935
aF3.3715214214062144
aF4.107393728725583
aF4.443266036045316
aF11.079138343359318
aF6.315010650683689
aF3.8508829580059682
aF3.6867552653261555
aF10.12262757264034
aF7.858499879962437
aF7.794372187282534
aF3.4302444946065407
aF4.666116801925455
aF9.301989109241276
aF3.6378614165664658
aF6.673733723883743
aF6.309606031204112
aF7.445478338523117
aF9.181350645841576
aF16.217222953155215
aF7.653095260483042
aF3.888967567806503
aF4.124839875126327
aF9.66071218244133
aF3.396584489767065
aF3.9324567970866156
aF7.368329104466284
aF4.104201411822032
aF4.340073719190514
aF6.475946026565907
aF5.011818333928204
aF7.2476906413039615
aF4.883562948662984
aF4.319435256028555
aF4.155307563395581
aF3.79117987076188
aF5.227052178134727
aF5.962924485505027
aF4.198796792866233
aF10.534669100256906
aF3.8705414076002853
aF4.2064137149691305
aF3.942286022335793
aF5.5781583297093675
aF8.21403063708658
aF4.749902944441601
aF3.9857752518064444
aF3.9216475591738345
aF5.557519866547409
aF4.99339217391298
aF3.929264481276732
aF4.365136788645941
aF4.00100909601224
aF3.736881403378902
aF4.67275371074993
aF4.908626018118412
aF6.444498325491622
aF13.280370632884114
aF4.716242940220582
aF7.152115247597067
aF8.587987554969914
aF5.323859862325662
aF8.459732169704694
aF6.095604477063716
aF3.831476784423103
aF10.367349091814503
aF4.803221399161885
aF7.539093706539461
aF3.8749660138937543
aF4.2108383212625995
aF4.746710628632172
aF6.282582936005383
aF6.218455243372773
aF7.854327550746348
aF3.8901998580995496
aF5.526072165473124
aF8.061944472849973
aF11.797816780231187
aF3.933689087570201
aF10.66956139496233
aF3.405433702303526
aF3.741306009672371
aF8.577178317057587
aF5.4130506244136996
aF19.948922931834204
aF9.884795239165214
aF7.320667546523509
aF4.156539853879622
aF6.392412161255379
aF35.02828446872718
aF24.96415677605819
aF15.400029083391019
aF7.135901390728577
aF6.3717736980934205
aF7.507646005465176
aF5.743518312826382
aF6.779390620197773
aF12.015262927584445
aF5.25113523492746
aF3.9870075422904847
aF3.4228798496560557
aF3.658752157024537
aF3.8946244643930186
aF5.230496771765502
aF7.166369079140168
aF3.3022413864937334
aF5.538113693869491
aF3.7739860012306963
aF4.209858308599905
aF27.545730616052424
aF18.281602923386345
aF9.217475230720993
aF8.953347538087655
aF4.889219845440493
aF3.525092152803154
aF10.260964460195282
aF4.896836767543391
aF5.832709074914419
aF16.86858138232219
aF8.504453689659385
aF9.640325997031141
aF6.176198304386162
aF5.8120706117524605
aF7.04794291912458
aF3.483815226479237
aF15.819687533891738
aF10.955559841241666
aF7.59143214859705
aF12.027304455980811
aF18.663176763372576
aF14.799049070726142
aF5.234921378058971
aF5.67079368542818
aF4.30666599279084
aF4.042538300157503
aF5.078410607528895
aF7.614282914905743
aF6.15015522226804
aF5.386027529632884
aF6.221899837003548
aF4.8577721443662085
aF4.193644451731416
aF6.2295167591064455
aF4.865389066469106
aF7.701261373847046
aF5.237133681205705
aF6.573005988578188
aF5.408878295941577
aF3.5447506033024183
aF4.58062291067381
aF3.3164952180368346
aF4.45236752540859
aF10.488239832798172
aF4.124112140142643
aF3.959984447509669
aF3.5958567548759675
aF5.031729062248814
aF7.367601369624936
aF9.50347367700033
aF5.3393459843528035
aF5.375218291720557
aF3.7110905990821266
aF4.846962906453882
aF6.282835213826729
aF4.718707521188662
aF4.0545798285538694
aF5.890452135928172
aF13.026324443321755
aF5.162196750660769
aF6.398069058032888
aF6.2339413653999145
aF5.069813672763303
aF8.005685980141607
aF4.3415582874959
aF5.677430594868383
aF5.613302902235773
aF19.849175209655186
aF10.38504751698838
aF4.120919824333214
aF3.8567921316998763
aF7.392664439080363
aF3.82853674643502
aF3.5644090538016826
aF4.200281361171619
aF6.836153668548832
aF4.87202597590931
aF5.307898283278519
aF5.643770590647364
aF42.37964289814863
aF32.415515205480006
aF22.551387512811743
aF13.087259820144936
aF5.323132127484314
aF4.059004434847338
aF3.4948767422129094
aF5.330749049587212
aF3.8666213569495085
aF4.502493664319445
aF4.83836597168829
aF4.474238279054589
aF4.010110586420524
aF9.145982893806831
aF6.781855201165854
aF4.217727508524149
aF5.153599815895177
aF7.689472123272026
aF5.62534443063214
aF4.961216737997347
aF4.397089045362918
aF5.332961352733946
aF4.668833660099153
aF14.50470596750256
aF4.640578274834297
aF3.776450582198777
aF3.8123228895665306
aF4.048195196935012
aF4.084067504302766
aF3.8199398116694283
aF4.355812119039001
aF3.791684426404572
aF3.9275567337726898
aF7.56342904115354
aF4.399301348509653
aF5.435173655881044
aF4.371045963244796
aF4.606918270613278
aF6.342790577987216
aF6.278662885354606
aF4.414535192715448
aF5.45040750008684
aF5.286279807453866
aF4.822152114819801
aF4.858024422187555
aF4.893896729555308
aF4.529769036921607
aF5.465641344292635
aF4.401513651656387
aF5.037385959026324
aF4.0732582663904395
aF4.0091305737578296
aF5.245002881129949
aF6.080875188500613
aF3.4167474958585444
aF5.552619803233938
aF5.088492110599873
aF3.524364417961806
aF3.960236725331015
aF5.396109032703862
aF6.631981340075981
aF3.767853647433185
aF4.803725954804577
aF9.339598262188701
aF14.175470569573918
aF8.711342876921663
aF7.947215184286506
aF6.783087491649894
aF16.91895979905439
aF14.254832106412323
aF5.290704413747335
aF4.526576721112178
aF4.162449028478477
aF5.998321335852779
aF5.734193643219442
aF4.57006595058283
aF5.505938257953858
aF3.341810565313608
aF4.0776828726839085
aF9.713555180072035
aF3.5494274874172334
aF4.8852997947897165
aF4.92117210215747
aF5.157044409525952
aF5.892916716896252
aF3.528789024255275
aF5.464661331629941
aF5.500533638997695
aF4.636405946362174
aF6.272278253735749
aF4.808150561098046
aF3.244022868459979
aF4.279895175831371
aF3.515767483196214
aF4.151639790566151
aF3.6875120979320855
aF5.823384405307479
aF6.959256712679235
aF5.795129020042623
aF4.831001327406739
aF14.26687363480869
aF5.8027459421455205
aF4.538618249508545
aF14.07449055691086
aF6.310362864250237
aF6.0462351716169
aF8.282107478992657
aF4.217979786345495
aF4.853852093715432
aF4.789724401082822
aF7.625596708460762
aF10.66146901583943
aF4.997341323186447
aF5.633213630556384
aF3.5690859379164976
aF3.5049582452838877
aF13.640830552688385
aF4.776702860023761
aF4.012575167388604
aF4.648447474758541
aF4.184319782124476
aF3.8201920894907744
aF4.556064396861075
aF4.191936704227373
aF4.527809011596219
aF5.263681318966519
aF5.799553626336092
aF7.735425933710758
aF6.171298241072691
aF8.607170548449176
aF3.443042855798012
aF3.978915163167585
aF4.214787470536066
aF7.750659777916553
aF4.086532085270846
aF12.722404392669887
aF5.35827670001072
aF3.9941490073733803
aF4.230021314741862
aF3.565893622107069
aF6.7017659294861005
aF4.137638236844396
aF11.273510544237979
aF8.409382851595183
aF4.045255158946929
aF6.88112746632487
aF4.016999773682073
aF4.152872081050191
aF4.7887443884201275
aF11.024616695810437
aF13.060489003185467
aF4.996361310523753
aF3.932233617887505
aF15.268105925296368
aF6.30397823263138
aF5.839850539997315
aF3.675722847357065
aF3.9115951547255463
aF10.647467462117675
aF3.5833397694595988
aF4.919212076832082
aF4.655084384198744
aF3.1909566915610412
aF10.826828998956444
aF4.362701306300551
aF6.598573613676308
aF13.4344459210688
aF6.570318228411452
aF3.8061905357690193
aF9.04206284315569
aF10.677935150529265
aF9.41380745789229
aF4.34967976524149
aF5.985552072615064
aF3.8214243799748147
aF5.357296687348025
aF4.193168994711414
aF3.8290413020777123
aF12.964913609477662
aF4.800785916815585
aF15.336658224221537
aF6.572530531557277
aF4.508402838917391
aF4.844275146286236
aF6.5801474536601745
aF6.5160197610275645
aF9.251892068405141
aF8.687764375770712
aF10.523636683145014
aF6.059508990496397
aF4.695381297859058
aF7.131253605235543
aF4.967125912595293
aF6.202998219967412
aF4.138870527327526
aF4.974742834698191
aF3.9106151420619426
aF29.946487449524284
aF44.1823597569437
aF37.718232064287804
aF28.654104371622452
aF18.689976678953826
aF9.925848986289566
aF3.9617212936354917
aF5.4975936010087025
aF3.9334659083706356
aF6.569338215747848
aF3.9052105231057794
aF4.141082830474261
aF3.476955137839468
aF11.512827445236326
aF3.448699752574612
aF3.4845720599423657
aF3.6204443673104834
aF7.15631667469097
aF3.8921889820467186
aF4.028061289414836
aF6.063933596789866
aF3.8998059041496163
aF4.535678211519553
aF5.571550518890945
aF6.1074228262605175
aF6.0432951336279075
aF5.879167440994934
aF5.115039748359777
aF21.75091205578792
aF11.586784363118568
aF8.822656670476135
aF4.358528977827518
aF5.1944012851981824
aF38.630273592687445
aF37.46614590005083
aF28.302018207385117
aF20.337890514723767
aF10.87376282205696
aF5.209635129403978
aF4.345507436768457
aF5.381379744139849
aF3.917252051502146
aF4.053124358870264
aF4.988996666241292
aF4.724868973607954
aF7.9607412809873495
aF3.8966135883401876
aF5.632485895714126
aF4.068358203076059
aF5.004230510447087
aF4.140102817811567
aF4.775975125181503
aF27.01184743263002
aF17.147719739961758
aF10.28359204730441
aF4.219464354649972
aF5.555336662022455
aF4.091208969384752
aF6.227081276760146
aF9.96295358414136
aF6.798825891497472
aF5.234698198859405
aF10.070570506244621
aF4.306442813591275
aF3.742315120956846
aF4.3781874283267825
aF4.8140597356959915
aF4.949932043064109
aF4.185804350428953
aF6.321676657804346
aF4.057548965163733
aF23.993421272603882
aF16.52929357994435
aF6.565165887275725
aF4.801038194636931
aF3.3369105019992276
aF7.672782809382625
aF3.908655116736554
aF3.544527424102853
aF4.780399731474972
aF3.6162720388383605
aF5.952144346214482
aF4.288016653576051
aF8.123888960957629
aF6.559761268319562
aF4.095633575678221
aF6.131505883053251
aF7.067378190424279
aF11.803250497809131
aF3.6391228051470534
aF10.374995112539182
aF9.410867419903298
aF5.546739727256863
aF32.18261203472139
aF23.618484342057855
aF15.054356649394322
aF5.1902289567260596
aF6.226101264097451
aF7.861973571471026
aF4.497845878826411
aF3.733718186191254
aF15.269590493600845
aF5.9054628009344015
aF12.441335108325802
aF6.077207415670273
aF6.813079723040573
aF5.248952030402506
aF3.484824337763712
aF4.920696645136559
aF6.956568952511589
aF7.092441259879706
aF4.22831356723691
aF19.46418587465996
aF11.800058181999702
aF4.935930489342354
aF3.97180279670647
aF3.507675104072405
aF4.143547411442341
aF5.579419718815188
aF4.915292026180396
aF6.251164333552879
aF13.187036640945735
aF7.72290894829348
aF3.6587812556463177
aF12.294653563045358
aF9.330525870402198
aF4.766398177753217
aF4.402270485119516
aF3.6381427924843592
aF4.774015099856115
aF5.509887407226415
aF4.3457597145898035
aF4.98163202195974
aF4.7175043293264025
aF5.053376636695248
aF4.389248944060455
aF5.125121251430755
aF14.860993558833798
aF11.596865866189546
aF5.332738173534381
aF3.7686104808963137
aF3.7044827882637037
aF4.2403550956332765
aF6.276227403008306
aF4.812099710370603
aF3.9479720177350828
aF3.5838443251013814
aF4.01971663247059
aF6.555588939847439
aF4.591461247207917
aF3.527333554571669
aF4.063205861941242
aF6.499078169317727
aF6.234950476684389
aF4.970822784047414
aF3.9066950914111658
aF6.9425673987898335
aF4.078439706147037
aF4.514312013516246
aF3.7501843208810897
aF7.686056628263032
aF7.421928935629694
aF5.257801242989444
aF6.493673550361564
aF3.5295458577184036
aF6.4654181650967075
aF3.5012904724535474
aF4.537162779824939
aF4.473035087192329
aF4.108907394558628
aF9.144779701944572
aF32.38065200939673
aF22.11652431672701
aF14.45239662406675
aF9.688268931417042
aF4.82414123876697
aF7.060013546142727
aF3.695885853498112
aF4.131758160867321
aF9.367630468253992
aF9.50350277562211
aF5.039375082973493
aF8.975247390355435
aF8.311119697720642
aF7.14699200508403
aF15.082864312480524
aF8.31873661982354
aF3.654608927174195
aF11.390481234569961
aF3.7263535419097025
aF6.262225849286551
aF3.9980981566459377
aF4.233970464014419
aF8.869842771398908
aF3.8057150787481078
aF4.741587386119136
aF4.477459693485798
aF3.7133320008506416
aF5.249204308223852
aF3.385076615584694
aF4.420948922956086
aF3.5568212303205655
aF5.19269353769414
aF4.4285658450589835
aF7.8644381524391065
aF5.600310459798493
aF4.536182767162245
aF5.672055074534001
aF10.507927381919217
aF4.243799689264051
aF4.879671996633988
aF5.315544304003197
aF5.251416611370587
aF4.3872889187350665
aF3.8231612261006376
aF4.859033533472029
aF4.094905840836873
aF3.7307781482031714
aF4.1666504555723805
aF7.702522762952867
aF6.338395070315528
aF6.174267377682554
aF6.9101396850528545
aF4.446011992411513
aF4.781884299780359
aF4.117756607145566
aF4.653628914515139
aF4.289501221881437
aF8.425373529264107
aF4.0612458366158535
aF4.397118143984699
aF8.532990451367368
aF5.768862758724936
aF5.004735066089779
aF4.940607373457169
aF3.7764796808205574
aF14.612351988227601
aF9.648224295577165
aF4.384096602925638
aF4.0199689102919365
aF6.355841217668058
aF4.291713525028172
aF7.627585832407931
aF6.7634581397724105
aF4.599330447132161
aF5.03520275450137
aF13.171075061898591
aF4.006947369232876
aF5.342819676605359
aF7.478691983980752
aF5.014564291339411
aF5.050436598707165
aF5.986308906078193
aF4.7221812134412176
aF9.358053520825706
aF4.593925828175998
aF3.829798135540841
aF33.26567044301555
aF23.90154275034911
aF17.237415057692488
aF9.87328736503332
aF4.8091596723825205
aF3.6450319797459088
aF11.380904287141675
aF10.91677659450761
aF7.152648901861539
aF5.288521209222381
aF16.02439351662906
aF6.060265823960435
aF6.996138131331463
aF8.832010438705765
aF5.067882746059695
aF4.003755053423447
aF3.939627360790837
aF3.775499668157863
aF3.811371975525617
aF4.747244282896645
aF3.5831165902600333
aF7.718988897642703
aF4.054861204996996
aF7.390733512376755
aF6.026605819739416
aF3.462478127097711
aF4.198350434468011
aF3.734222741833946
aF6.370095049211159
aF10.105967356592373
aF3.4418396639357525
aF5.67771197131151
aF4.713584278675626
aF15.649456586083033
aF5.385328893413316
aF7.1212012007872545
aF5.857073508150279
aF4.692945815513667
aF4.528818122880693
aF14.064690430283008
aF4.800562737616929
aF6.036435044989048
aF4.072307352349526
aF12.80817965974893
aF3.7440519670835783
aF3.6799242744509684
aF6.215796581827817
aF5.051668889191205
aF5.087541196558959
aF4.723413503925258
aF11.959285811319205
aF4.195158118658583
aF3.53103042602379
aF3.866902733392635
aF4.702775040763299
aF11.738647348156519
aF3.774519655495169
aF5.610391962869471
aF5.24626427023577
aF7.2821365776108
aF6.618008884976007
aF5.353881192339031
aF3.7897534997009643
aF4.1256258070698095
aF4.0614981144371995
aF7.4973704218173225
aF3.5332427291705244
aF3.4691150365379144
aF3.604987343906032
aF7.540859651287974
aF4.976731958646269
aF6.812604266020571
aF7.848476573391963
aF4.184348880746256
aF4.320221188114374
aF3.35609349547849
aF9.491965802868435
aF4.02783811021618
aF8.863710417601396
aF3.599582724949869
aF10.635455032343089
aF7.271327339698473
aF4.207199647054949
aF5.5430719544274325
aF3.5789442617879104
aF7.4148165691694885
aF3.750688876523782
aF4.986561183895901
aF24.022433491332777
aF14.658305798666333
aF6.694178106004983
aF4.230050413363642
aF8.56592272074704
aF8.301795028113702
aF10.337667335488732
aF4.273539642834294
aF21.70941195026535
aF11.745284257596722
aF5.081156564940102
aF7.117028872315132
aF4.552901179673427
aF5.88877348704591
aF5.0246457944103895
aF5.4605181017795985
aF3.7963904091411678
aF11.43226271653657
aF8.868135023894865
aF6.904007331255343
aF7.339879638624552
aF6.975751945990851
aF4.011624253347691
aF15.747496560758009
aF8.08336886809775
aF10.219241175473144
aF19.25511348287364
aF11.490985790213017
aF4.626858097555669
aF7.462730404933609
aF7.598602712301727
aF4.934475019659658
aF7.070347327035051
aF4.0062196343915275
aF3.3420919417567347
aF5.477964249132128
aF3.4138365564922424
aF10.14970886388437
aF15.185581171270314
aF8.221453478612602
aF4.057325785965077
aF9.693198093353203
aF4.5290704007020395
aF7.264942708079616
aF4.300815015436456
aF14.236687322840226
aF7.7725596301843325
aF4.20843193753899
aF5.7443042449122
aF4.88017655227668
aF11.216048859667353
aF6.551921167018008
aF7.887793474390492
aF9.62366578176443
aF7.3595380891238165
aF6.995410396490115
aF11.131282703872785
aF6.46715501122344
aF11.003027318607565
aF6.238899625957856
aF5.174771933321608
aF3.9106442406846327
aF5.146516548056752
aF4.982388855423778
aF4.518261162789713
aF21.354133470218585
aF11.290005777549595
aF5.325878084895521
aF4.161750392258909
aF5.497622699631393
aF16.533495007039164
aF10.269367314383999
aF8.305239621744477
aF4.8411119290994975
aF3.3769842364617944
aF3.7128565438306396
aF3.7487288511983934
aF3.384601158564692
aF5.820473465941177
aF5.556345773307839
aF10.49221808069342
aF6.22809038804553
aF4.663962695407463
aF3.99983500277267
aF5.435707310145517
aF4.571579617509997
aF7.007451924886482
aF15.543324232285158
aF9.17919653962963
aF7.915068846992654
aF8.55094115436259
aF6.486813461722704
aF6.8226857690915494
aF5.7585580764553015
aF3.6944303838154156
aF3.830302691183533
aF5.166174998556016
aF11.80204730594778
aF4.537919613288977
aF3.4737919206527295
aF3.9096642280219385
aF31.5455365354901
aF21.781408842822202
aF14.917281150164854
aF7.453153457505323
aF3.88902576485998
aF4.024898072228098
aF7.660770379608948
aF4.49664268696506
aF4.632514994333178
aF7.368387301710754
aF5.60425960907196
aF10.240131916456448
aF5.376004223806376
aF6.6118765311784955
aF5.447748838541884
aF8.083621145919096
aF8.419493453287942
aF4.455365760641143
aF9.391238068026723
aF4.3271103753759235
aF3.462982682740403
aF5.998854990117252
aF8.23472729749301
aF5.0705996048491215
aF4.406471912214329
aF4.64234421958281
aF4.878216526951292
aF3.614088834314316
aF4.3499611416846165
aF4.185833449051643
aF4.521705756420488
aF8.45757806380243
aF7.0934503711650905
aF4.5293226785233855
aF4.165194985889684
aF4.00106729325671
aF3.636939600623009
aF3.7728119079911266
aF4.3086842153606995
aF4.044556522727362
aF5.480428830100209
aF3.7163011374614143
aF5.5521734448357165
aF17.088045752245307
aF9.023918059583593
aF4.259790366933885
aF3.9956626743005472
aF6.63153498167776
aF6.467407289044786
aF5.2032795964078105
aF4.839151903774109
aF10.375024211161872
aF4.110896518506706
aF4.346768825875188
aF4.382641133242942
aF3.21851344060633
aF4.854385747979904
aF3.7902580553436565
aF10.826130362736876
aF4.762002670082438
aF9.797874977468382
aF5.0337472848186735
aF4.069619592182789
aF5.805491899556728
aF5.54136420692339
aF4.177236514286051
aF9.313108821672358
aF10.748981129045205
aF28.884853436478807
aF19.72072574381309
aF16.356598051168476
aF11.39247035851804
aF5.02834266586251
aF3.7642149732255348
aF4.800087280596927
aF3.4359595879595872
aF4.171831895329888
aF4.907704202700188
aF5.343576510069397
aF11.879448817460798
aF5.215321124804177
aF9.251193432186483
aF4.787065739537866
aF5.522938046908166
aF4.658810354272646
aF5.49468266164331
aF5.230554969009972
aF8.066427276387913
aF5.402299583745844
aF6.138171891116144
aF3.774044198475167
aF6.009916505850924
aF10.745788813235777
aF7.181661120590434
aF12.917533427978924
aF8.25340573532958
aF5.989278042688966
aF7.125150350060721
aF6.261022657425201
aF21.096894964846797
aF22.632767272220008
aF13.568639579554656
aF6.604511886896944
aF7.540384194267972
aF4.776256501625539
aF4.512128808992202
aF9.748001116378873
aF17.78387342377573
aF9.919745731114745
aF7.855618038474859
aF7.3914903458407935
aF6.427362653204909
aF4.463234960565387
aF4.099107267931686
aF5.334979575303805
aF4.770851882669376
aF4.706724190036766
aF4.642596497404156
aF4.278468804770455
aF10.314341112160037
aF4.3502134195059625
aF3.7860857268715336
aF4.021958034240015
aF4.057830341607769
aF16.293702649019906
aF9.929574956364377
aF5.965447263717579
aF3.6013195710766013
aF5.537191878451267
aF3.9730641858132003
aF8.708936493198053
aF4.044808800548708
aF3.480681107914279
aF4.716553415286398
aF10.052425722673433
aF5.888298030025908
aF3.824170337386022
aF7.460042644766872
aF6.595914952131352
aF5.631787259495468
aF6.66765956686686
aF3.903531874224427
aF19.93940418165039
aF11.47527648898722
aF4.511148796329508
aF4.347021103696534
aF8.682893411079931
aF4.4187657184320415
aF3.654638025796885
aF3.7905103331650025
aF4.2263826405342115
aF6.262254947909241
aF6.5981272552780865
aF3.433999562634199
aF9.069871870022325
aF3.5057441773697064
aF3.8416164847385517
aF5.877488792113581
aF6.013361099481699
aF4.549233406843996
aF3.7851057142088393
aF4.720978021579867
aF4.856850328947985
aF4.192722636313192
aF4.528594943682037
aF6.36446725105634
aF13.500339558449923
aF7.536211865795849
aF3.572084173149051
aF5.7079564805244445
aF6.6438287878954725
aF3.4797010952515848
aF4.915573402624432
aF8.251445710004191
aF3.787318017355574
aF3.5231903247222363
aF6.259062632099813
aF5.394934939464292
aF7.830807246840777
aF4.466679554196162
aF5.202551861566462
aF5.138424168933852
aF4.47429647629906
aF3.5101687836631754
aF6.646041091042207
aF9.781913398421239
aF3.517785705766073
aF4.653658013137829
aF4.789530320505946
aF13.325402627904623
aF4.261274935239271
aF3.697147242604842
aF9.63301954999406
aF3.9688918573410774
aF3.8047641647081036
aF18.94063647213079
aF18.776508779497817
aF9.212381086830646
aF6.34825339418785
aF4.784125701549783
aF4.0199980089146266
aF21.15587031634459
aF11.591742623677419
aF8.827614931034987
aF4.663487238387461
aF7.799359545766492
aF8.235231853135701
aF5.1711041604921775
aF4.90697646785884
aF4.84284877522623
aF8.47872108260708
aF5.114593389962465
aF5.45046569733131
aF3.986338004693607
aF4.322210312062452
aF11.358082619455672
aF7.29395492680851
aF5.029827234167897
aF16.765699541374488
aF9.201571848661843
aF7.237444155867706
aF5.873316463064839
aF6.809188770228502
aF3.4450610774547386
aF4.280933384619857
aF3.816805691803893
aF9.452677998899162
aF4.088550306154502
aF16.52442261315082
aF9.060294920436718
aF3.5961672276935133
aF3.732039534868818
aF5.167911842025205
aF3.6037841492252483
aF7.1396564563510765
aF3.675528763578768
aF3.4114010707598936
aF5.44727337790755
aF4.283145685101772
aF6.019017992253794
aF19.554890299234103
aF10.290762606546195
aF5.826634913788439
aF4.262507220988482
aF4.4983795281623316
aF5.234251835328905
aF6.770124142483837
aF4.305996449696977
aF6.041868756848999
aF3.9777410640563176
aF4.113613371231622
aF17.949485678207566
aF8.885357985516748
aF5.921230292737164
aF3.657102599947393
aF11.992974907003372
aF4.628847214287816
aF8.864719521403458
aF4.400591828645702
aF3.836464135831193
aF4.072336443005042
aF5.30820875016434
aF6.144081057329458
aF8.179953364477115
aF8.215825671653874
aF3.5516979788990284
aF5.28757028605105
aF5.623442593223444
aF13.959314900279423
aF4.295187207597337
aF7.631059514726076
aF9.166931821881008
aF4.302804129129072
aF3.5386764363174734
aF3.9745487434884126
aF3.5104210506724485
aF3.5462933578492084
aF4.482165665012872
aF5.418037972176535
aF6.553910279337288
aF8.389782586487854
aF3.5256548937359184
aF7.96152720084865
aF6.197399508051603
aF4.833271815248736
aF8.369144122374564
aF14.505016429462557
aF6.6408887367542775
aF3.3767610439790587
aF4.812633351135446
aF3.848505658326758
aF3.684377965506428
aF15.920250272505655
aF9.756122579772637
aF8.491994886968314
aF7.427867194161081
aF6.363739501353848
aF34.09961180812752
aF33.03548411532029
aF27.271356422581448
aF18.00722872989354
aF11.443101037166343
aF4.678973344442056
aF6.1148456515984435
aF6.850717958765017
aF4.386590265978157
aF3.6224625731665583
aF3.758334880341863
aF6.0942071874851536
aF6.530079494656093
aF6.965951801827032
aF3.801824109050358
aF7.137696416179097
aF5.0735687233864155
aF3.809441030582093
aF7.7453133377021
aF5.28118564491524
aF6.517057952074538
aF4.252930259284767
aF3.4888025664731686
aF5.924674873615004
aF3.6605471808252332
aF3.796419488000538
aF5.732291795149649
aF3.5681641023584234
aF4.304036409524997
aF5.139908716690115
aF5.27578102386542
aF13.311653330925765
aF10.247525638147636
aF3.4833979454233486
aF10.81927025249388
aF6.6551425597317575
aF4.291014866943442
aF5.826887174098374
aF3.4627594813100586
aF4.598631788470811
aF4.834504095644661
aF5.47037640281269
aF5.1062487099952705
aF3.5421210171953135
aF3.9779933243662526
aF3.5138656315502885
aF8.549737938654289
aF4.285610245893622
aF3.721482553079113
aF6.1573548602209485
aF4.393227167423902
aF4.729099474596296
aF4.764971781773056
aF6.400844088926533
aF4.636716396129486
aF6.872588703274232
aF4.708461010483006
aF5.144333317653945
aF4.0802056248467125
aF3.4160779320336587
aF17.951950238999416
aF18.88782254616308
aF10.123694853467896
aF4.459567160727602
aF5.895439467883989
aF3.731311775092763
aF3.767184082269523
aF4.803056389431731
aF4.338928696615767
aF5.374801003777975
aF3.6106733109809284
aF5.34654561813295
aF5.38241792530971
aF4.118290232505387
aF8.254162539622484
aF6.290034846828348
aF9.525907153958542
aF9.061779461142578
aF8.597651768326614
aF3.733524075574678
aF5.869396382720879
aF5.805268689899094
aF10.74114099700455
aF5.777013304254069
aF3.712885611461388
aF4.348757918629417
aF9.684630225729052
aF5.420502532968385
aF4.756374840155331
aF3.792247147346643
aF3.728119454524858
aF3.5639917617045285
aF11.299864068769239
aF10.435736375959095
aF4.171608683227532
aF6.207480990375188
aF6.443353297549038
aF8.479225604696694
aF4.215097911936027
aF3.5509702191229735
aF9.286842526216788
aF5.1227148334546655
aF11.158587140544114
aF8.19445944776453
aF5.6303317549791245
aF5.866204062152974
aF28.602076368999406
aF24.037948676243104
aF22.373820983444602
aF12.309693290768337
aF4.445565598060057
aF8.581437905177154
aF5.517310212399025
aF6.1531825195670535
aF7.98905482671762
aF3.5249271339598636
aF4.260799441126437
aF5.096671748291556
aF4.532544055477047
aF6.1684163626305235
aF5.204288669821835
aF16.640160976832703
aF16.476033284012374
aF7.511905591320101
aF5.1477778985317855
aF8.283650205663434
aF3.719522512907133
aF5.5553948200577
aF5.291267127238825
aF17.52713943423805
aF8.663011741544324
aF6.998884048745822
aF7.434756355916761
aF7.570628663092066
aF9.706500970238267
aF3.942373277499428
aF6.778245584635442
aF3.914117891854403
aF5.849990199003514
aF5.38586250618755
aF4.821734813373041
aF5.45760712054107
aF14.493479427586863
aF5.3293517348975
aF3.9652240420946328
aF4.801096349259751
aF4.536968656440877
aF5.6728409636016295
aF4.408713270797307
aF5.34458557796097
aF12.480457885034411
aF4.016330192334863
aF6.252202499479608
aF5.588074806666555
aF7.723947113812756
aF5.459819421022985
aF3.895691728223028
aF9.131564035324118
aF4.967436342561996
aF4.503308649746032
aF5.739180956905329
aF4.375053264102462
aF5.510925571263215
aF10.346797878370126
aF5.182670185622555
aF6.618542492778943
aF3.854414799996448
aF3.9902871071717527
aF4.726159414338326
aF5.962031721497624
aF6.797904028662742
aF4.033776335880248
aF4.169648643055552
aF10.905520950134814
aF4.041393257411983
aF5.1772655645727355
aF7.913137871710205
aF7.549010178892786
aF4.184882486119022
aF5.820754793272499
aF3.756627100479818
aF10.392499407560535
aF9.428371714751847
aF4.064244022007188
aF4.000116329185403
aF9.835988636277762
aF4.271860943536012
aF4.807733250705496
aF4.543605557886622
aF12.279477864951332
aF5.015350172234321
aF4.551222479418357
aF5.787094786577654
aF19.922967093549232
aF12.758839400830766
aF9.494711708055547
aF4.730584015302156
aF5.566456322467275
aF3.902328629668773
aF10.038200936756766
aF4.074073244020838
aF12.209945551079727
aF5.545817858353985
aF10.081690165465261
aF4.417562472724967
aF4.1534347799060924
aF4.489307087078487
aF10.525179394167935
aF3.861051701442193
aF5.1969240086000354
aF7.83279631573896
aF6.568668622934638
aF4.804540930137591
aF4.6404132373172615
aF13.676285544363054
aF3.812157851683878
aF7.548030158806796
aF3.383902466044674
aF5.119774773196696
aF4.6556470803807315
aF4.791519387556036
aF7.127391694699327
aF4.263264001918287
aF4.599136309090682
aF12.535008616152481
aF8.070880923394725
aF7.606753230578761
aF4.742625537797721
aF12.378497844863887
aF32.01437015175543
aF23.250242459060246
aF13.786114766375249
aF5.221987073677155
aF9.057859380798618
aF4.893731688036496
aF3.6296039952321735
aF5.66547630237983
aF4.901348609568231
aF7.83722091670279
aF6.073093223905744
aF3.7089655311174283
aF6.2448378382578085
aF3.880710145469493
aF3.916582452646253
aF6.7524547597822675
aF7.688327066945931
aF3.5241993741838087
aF6.860071681312547
aF4.395943988525687
aF4.1318162957068125
aF6.667688602847193
aF12.503560909939551
aF16.339433217061014
aF14.775305524261057
aF4.911177831581881
aF3.5470501387790137
aF3.382922445958684
aF10.81879475302776
aF3.454667060312204
aF4.6905393674715015
aF4.526411674651172
aF4.262283981832297
aF6.998156288969767
aF3.6340285961960035
aF7.169900903321832
aF7.005773210501502
aF4.741645517711731
aF3.777517824903043
aF4.413390132071072
aF5.44926243923328
aF3.5851347464376886
aF3.321007053618814
aF5.456879360765015
aF5.492751667941775
aF3.6286239751461835
aF4.964496282304026
aF6.400368589460413
aF3.836240896675008
aF7.472113203799381
aF6.407985510992148
aF12.543857818080141
aF3.979730125382048
aF15.71560243238855
aF5.7514747397108295
aF3.887347046915238
aF4.723219354080356
aF6.159091661236744
aF4.6949639684353315
aF5.33083627560336
aF5.56670858277721
aF17.302580889783712
aF7.738453197100171
aF3.374325504340959
aF5.410197811488615
aF20.146070118451462
aF11.181942425759189
aF7.217814732994157
aF4.453687040211662
aF7.489559347344766
aF6.025431654543354
aF4.861303961737576
aF6.997176268883777
aF7.733048576050351
aF3.968920883282408
aF4.204793190456257
aF11.340665497529699
aF3.876537804815598
aF5.41241011197053
aF3.7482824191720283
aF10.68415472624838
aF4.220027033519727
aF3.955899340700853
aF6.191771647845599
aF8.427643954990344
aF4.263516262228222
aF5.1993885693918855
aF8.735260876517714
aF4.371133183758502
aF6.707005490901793
aF14.442877797966503
aF4.6787501052858715
aF5.3146224124539
aF4.350494719645212
aF4.586367026819062
aF6.322239333971083
aF3.7581116411856783
aF7.493983948308596
aF3.829856255539198
aF3.7657285627174133
aF5.60160086986798
aF4.537473177060747
aF7.173345484199672
aF4.2092177914200875
aF4.045090098599758
aF5.880962405750324
aF4.216834712951822
aF6.2527070200994785
aF4.288579327305342
aF5.624451634463185
aF3.6603239416690485
aF19.596196248614433
aF19.732068555789738
aF11.667940863084368
aF10.403813170280046
aF4.7396854775397514
aF12.275557784607372
aF5.811430091878719
aF5.2473023990642105
aF4.083174706258433
aF4.419047013430827
aF12.254919320494082
aF7.690791627737781
aF6.526663934932003
aF4.362536242140777
aF6.698408549284068
aF5.634280856476835
aF7.8701531636215805
aF6.506025470818713
aF4.341897778027487
aF4.077770085208613
aF3.8136423923897382
aF5.54951469954176
aF3.2853870067519892
aF5.821259313892369
aF4.657131621086592
aF4.293003928269172
aF8.128876235390635
aF5.964748542599409
aF4.400620849799452
aF4.036493156982033
aF4.272365464155882
aF5.70823777131227
aF4.244110078510857
aF5.179982385674521
aF5.015854692854191
aF5.551727000023675
aF8.487599307158234
aF4.2234716143975675
aF4.559343921569962
aF3.2952162287656392
aF5.131088535916206
aF6.466960843074048
aF11.602833150176593
aF4.838705457452306
aF14.874577764483547
aF9.010450071746163
aF5.346322378976765
aF8.082194686114235
aF7.918066993293905
aF4.953939300514321
aF6.689811607666343
aF6.525683914846013
aF7.161556222014042
aF11.197428529132594
aF4.2333008364112175
aF3.469173143599619
aF3.8050454507720133
aF7.640917757893476
aF3.7767900651269883
aF4.812662372289196
aF10.7485346793801
aF4.984406986641261
aF6.220279293800559
aF4.156151601007878
aF7.092023908142437
aF16.7278962151795
aF7.963768522484315
aF7.199640829672717
aF4.335513136891677
aF4.971385444059706
aF5.907257751223369
aF4.643130058419047
aF5.179002365588531
aF13.414874672645965
aF3.550746979966789
aF5.2866192871188105
aF3.7224915943188535
aF4.558363901483972
aF10.494236208574875
aF5.730108515821485
aF5.965980822995334
aF3.8018531302041083
aF4.7377254373677715
aF4.973597744541621
aF5.009470051718381
aF5.945342358882044
aF9.181214666012238
aF4.117086973263213
aF4.352959280437062
aF7.588831587567256
aF5.124703894780396
aF6.560576201936783
aF4.096448509149923
aF6.632320816290303
aF3.6681931235107186
aF18.804065430467745
aF8.739937737791479
aF5.175810045020626
aF6.011682352185744
aF10.74755465929411
aF4.483426966562547
aF6.119299273716024
aF14.955171580764727
aF5.991043888072454
aF5.3269161952594
aF6.162788502424519
aF7.8986608095765405
aF5.934533116782404
aF4.170405423985358
aF5.106277731149021
aF10.042150038254476
aF3.478022345527279
aF4.113894652695308
aF4.449766959867702
aF6.185639267019724
aF25.421511573917087
aF26.057383881085116
aF40.09325618805815
aF30.929128495368786
aF23.465000802654686
aF25.300873109805252
aF15.836745417120255
aF6.572617724432348
aF3.508490031654219
aF15.944362338650535
aF6.380234645966993
aF3.8161069531815883
aF5.35197926033652
aF4.387851567527832
aF4.623723874701682
aF5.759596181862435
aF4.995468489050836
aF16.931340796054428
aF9.567213103338872
aF3.6030854106029437
aF8.038957717715675
aF5.2748300249331805
aF5.110702332112851
aF6.546574639269238
aF9.582446946402342
aF3.518319253667869
aF5.354191560818435
aF3.890063868017023
aF4.625936175183597
aF4.361808482364722
aF7.497680789496371
aF7.433553096674586
aF6.569425403864443
aF5.105297711063031
aF4.441170018249977
aF3.977042325434013
aF3.7129146326151385
aF20.248786939551792
aF10.88465924686534
aF5.72053155411777
aF4.156403861317813
aF6.492276168461103
aF4.028148475674243
aF4.364020782846637
aF5.099893090013211
aF5.73576539718124
aF4.071637704382738
aF3.8075100115638634
aF3.543382318744989
aF5.179254625898466
aF7.615126933040301
aF7.650999240217061
aF7.486871547396731
aF5.722743854599685
aF4.158616161799728
aF6.494488468943018
aF4.830360776144516
aF3.566233083340194
aF4.002105390511133
aF3.537977697695169
aF12.173850004746782
aF4.909722312029771
aF10.045594619132316
aF5.58146692637456
aF4.717339233564417
aF5.153211540735356
aF18.089083847724396
aF10.324956155014661
aF6.060828462253994
aF4.896700769448216
aF4.432573076632252
aF6.168445383784274
aF3.604317690998869
aF6.440189998134883
aF4.476062305340747
aF9.811934612440382
aF3.6478069197073637
aF6.3836792268448335
aF3.919551534057973
aF4.555423841226002
aF5.59129614838821
aF3.8271684555911634
aF3.6630407627708337
aF5.598913069919945
aF4.834785377108346
aF3.3706576843069342
aF3.606529991480784
aF6.842402298610978
aF4.078274605828483
aF7.514146912955766
aF11.650019220072863
aF3.7858915273645835
aF3.921763834539888
aF10.65763614161915
aF6.293508448859939
aF13.929380755926104
aF7.065253063203272
aF7.201125370378577
aF4.336997677597537
aF7.472869984729186
aF4.008742291956878
aF3.544614599140914
aF4.180486906308943
aF4.416359213482792
aF3.452231520674104
aF4.188103827840678
aF3.7239761350247136
aF5.3598484421781905
aF7.695720749321481
aF3.531593056559359
aF5.267465363711381
aF4.003337670907058
aF4.239209978080908
aF6.475082285225653
aF8.51095459237331
aF5.146826899599546
aF4.382699206787947
aF15.418571513804636
aF8.05444382108908
aF3.6903161283298687
aF5.42618843548189
aF11.362060742572794
aF5.297933049838321
aF6.133805357003439
aF6.969677664168557
aF3.7055499713933386
aF14.841422278408572
aF6.277294585710479
aF3.613166892926529
aF10.349039200005791
aF4.784911507264042
aF6.020783814423339
aF3.3566561216393893
aF6.192528428775404
aF8.528400735918694
aF8.764273043092544
aF3.4001453503478842
aF4.336017657511547
aF5.771889964667935
aF5.007762271856336
aF3.943634579049103
aF15.079506886064337
aF5.61537919337934
aF8.751251500510989
aF5.68712380773286
aF5.822996114908165
aF4.458868422105297
aF20.194740729053592
aF10.530613036371506
aF3.8664853436457634
aF8.20235765075995
aF70.63822995702867
aF68.3741022642389
aF59.50997457154517
aF50.245846878857265
aF41.28171918616499
aF33.81759149345089
aF23.953463800771715
aF15.289336108075076
aF8.225208415355155
aF5.161080722577026
aF8.296953029708675
aF3.632825336953829
aF4.268697644121858
aF4.004569951302983
aF7.640442258427356
aF3.7763145656608685
aF5.812186872808525
aF7.248059179964912
aF6.983931487146037
aF4.8198037943548115
aF4.555676101535937
aF6.791548408680683
aF5.027420715883636
aF4.563293023067672
aF3.599165330258984
aF3.435037637438654
aF4.670909944597952
aF4.506782251777622
aF6.9426545589194575
aF9.778526866055472
aF5.81439917329044
aF6.150271480462834
aF5.986143787642504
aF14.522016094695573
aF7.9578884019683755
aF5.8937607091756945
aF5.129633016364096
aF7.565505323505931
aF3.8013776307379885
aF4.437249937906017
aF3.8731222450915084
aF4.108994552265358
aF14.044866859298054
aF10.280739166530111
aF10.91661147369814
aF6.052483780946204
aF4.188356088150613
aF4.3242283953259175
aF3.560100702514319
aF3.3959730096939893
aF5.73184531683728
aF4.167717624037323
aF4.403589931211172
aF10.8394622382948
aF7.175334545525402
aF6.211206852716714
aF3.7470791599298536
aF6.082951467073144
aF4.018823774280463
aF3.8546960814601334
aF3.590568388641259
aF4.526440695804922
aF18.06231300278523
aF7.9981853101089655
aF4.434057617338112
aF4.269929924517783
aF8.305802231636335
aF4.441674538869847
aF5.5775468460306
aF4.713419153220457
aF3.7492914604117686
aF4.785163767573977
aF3.9210360747638333
aF5.7569083819144
aF8.69278068904896
aF4.028652996294113
aF5.4645253034505
aF3.9003976106505434
aF4.536269917818572
aF4.772142224992422
aF8.208014532119705
aF10.143886839268816
aF5.179759146518336
aF4.315631453708193
aF5.351503760870401
aF8.887376067996229
aF12.623248375119147
aF3.659120682426874
aF3.8949929896007234
aF9.830865296691627
aF6.666737603914953
aF17.602609910933097
aF9.238482218232093
aF4.274354525481613
aF5.010226832648186
aF9.146099139765283
aF3.981971447017713
aF7.817843754139176
aF9.853716061286832
aF7.089588368504337
aF4.025460675726208
aF9.961332982817112
aF4.597205290072452
aF5.63307759723466
aF5.46894990441433
aF13.40482221147613
aF4.3406945187853125
aF6.276566825934424
aF6.112439133114094
aF6.148311440290854
aF4.084183747498173
aF3.7200560546807537
aF5.655928361829865
aF12.491800668907672
aF4.927672976195026
aF10.063545283297572
aF4.199417590560188
aF6.4352898977049335
aF6.071162204887514
aF4.407034512089012
aF4.3429068192672275
aF4.278779126445443
aF4.314651433622203
aF3.8505237408062385
aF10.386396047888411
aF5.322268355139386
aF6.558140662298683
aF3.694012969517644
aF5.7298852766653
aF4.065757583866798
aF3.601629891050834
aF7.137502198176662
aF5.573374505376705
aF3.509246812584024
aF4.245119119750598
aF3.9809914269317233
aF3.7168637341128488
aF3.4527360412939743
aF3.688608348467824
aF4.524480655632942
aF8.360352962754405
aF19.196225269774004
aF13.7320975770308
aF4.567969884341437
aF3.9038421915283834
aF4.139714498702233
aF5.175586805864441
aF3.611459113064484
aF3.3473314202456095
aF9.083203727339423
aF5.9190760345627496
aF4.154948341765703
aF15.890820648772205
aF6.726692956082843
aF4.462565263293072
aF9.898437570391252
aF3.4343098776625993
aF12.570182184706937
aF6.306054491975374
aF3.4419267991943343
aF4.477799106356542
aF3.9136714135420334
aF9.749543720634392
aF5.085416027879546
aF7.421288335022837
aF7.757160642195231
aF6.793032949386543
aF3.8289052566069586
aF4.564777563773532
aF5.100649870943016
aF5.736522178111045
aF5.172394485296536
aF6.208266792458744
aF3.544139099674794
aF4.680011406835547
aF3.4158837140312244
aF10.051756021111942
aF4.3876283283716475
aF14.523500635401433
aF6.759372942691698
aF4.995245249894651
aF8.931117557014659
aF11.966989864147763
aF5.302862171422021
aF3.3387344786278845
aF4.774606785784272
aF8.3104790929101
aF4.746351400139247
aF4.282223707323283
aF3.618096014510229
aF5.053968321666616
aF4.3898406288535625
aF4.325712936031778
aF4.761585243202717
aF3.7974575503940287
aF4.433329857562057
aF7.369202164696617
aF3.4050744719315844
aF5.64094677907633
aF5.176819086260366
aF7.5126913934036565
aF9.148563700557133
aF4.084436007808108
aF4.120308314984868
aF3.9561806221645384
aF4.792052929329657
aF8.62792523645112
aF4.163797543693363
aF9.899669850787177
aF13.835542157907184
aF4.971414465213456
aF4.707286772394582
aF6.743159079542238
aF13.87903138661568
aF4.514903693929227
aF8.75077600104487
aF7.286648308243457
aF5.622520615444955
aF13.6583929225053
aF4.694265229813027
aF12.930137536870461
aF4.766009844166547
aF12.101882151237078
aF5.337754458512791
aF4.973626765695371
aF5.6094990728634
aF3.8453713800663536
aF7.481243687190727
aF11.217115994313644
aF6.152988301564619
aF5.288860608754476
aF5.224732915932691
aF3.4606052231356443
aF6.596477530267293
aF9.332349837404763
aF7.868222144603351
aF5.004094451822311
aF5.139966758997616
aF5.575839066168555
aF12.911711373239086
aF3.4475836805540894
aF3.8834559877250285
aF3.4193282949090644
aF6.955200602034893
aF4.391072909249488
aF8.126945216372405
aF4.9628175235957315
aF5.198689830769581
aF10.83456213786485
aF7.870434445085266
aF4.306306752314413
aF12.242179059376213
aF5.9780513666446495
aF5.713923673825775
aF4.549795981019997
aF3.585668288211309
aF3.9215405953837035
aF3.9574129025604634
aF5.59328520971394
aF10.129157516825217
aF5.265029824073281
aF5.5009021312471305
aF3.4367744384544494
aF4.272646745619568
aF5.60851905277741
aF4.044391359977453
aF3.680263667160034
aF5.71613597430769
aF6.5520082814728084
aF3.7878805886903137
aF7.0237528958205075
aF4.559625203033647
aF6.595497510181303
aF4.031369817395898
aF8.167242124512995
aF5.903114431723225
aF3.8389867389305437
aF8.774859046036
aF3.5107313532898843
aF4.346603660455003
aF24.382475967340724
aF25.218348274505843
aF16.754220581806294
aF9.790092889084917
aF3.9259651963475335
aF13.961837503378774
aF4.397709810695233
aF6.733582117838523
aF7.369454425006552
aF5.205326732215326
aF4.541199039402272
aF5.077071346571756
aF6.0129436537354195
aF6.5488159609049035
aF3.684688268123864
aF5.72056057527152
aF4.656432882464287
aF5.692305189626495
aF7.828177496772696
aF4.764049803994567
aF5.799922111156775
aF4.635794418350997
aF7.471666725487012
aF7.807539032659406
aF5.243411339874001
aF11.579283646959084
aF5.315155954227521
aF5.151028261407191
aF12.286900568480633
aF7.422772875728697
aF3.758645182959299
aF3.19451749014479
aF20.630389797068347
aF25.76626210417089
aF15.402134411498992
aF6.138006718811084
aF3.673879026024224
aF5.70975133317188
aF5.145623640357371
aF5.681495947526855
aF6.317368254694884
aF8.55324056183963
aF3.4891128690906044
aF3.4249851762688195
aF4.560857483429572
aF6.196729790583049
aF6.5326020977554435
aF4.068474404968583
aF11.604346712036204
aF3.5402190193308343
aF3.8760913265032286
aF9.311963633601408
aF8.047835940797086
aF5.783708248007315
aF10.71958055511277
aF8.355452862324455
aF4.191325169562333
aF6.127197476711444
aF5.463069783898391
aF3.8989420910984336
aF4.534814398266462
aF6.070686705421394
aF3.8065590126316238
aF3.8424313198083837
aF7.878303626926936
aF5.314175934141531
aF4.350048241332843
aF3.8859205485168786
aF3.9217928556936386
aF8.35766516280637
aF7.193537470000592
aF4.229409777221008
aF4.665282084391947
aF4.101154391577438
aF4.037026698755653
aF3.672899005938234
aF5.308771313091711
aF4.844643620275747
aF5.280515927446686
aF4.016388234642363
aF6.652260541781288
aF8.78813284892749
aF3.4240051561828295
aF4.259877463347948
aF3.8957497705305286
aF4.631622077697102
aF3.667494384888414
aF6.903366692018608
aF5.039238999223016
aF4.975111306401232
aF6.910983613550343
aF7.946855920712551
aF4.682728227937332
aF7.018600535080623
aF6.0544728422719345
aF4.590345149470522
aF5.126217456640006
aF3.9620897638342285
aF4.197962071008078
aF10.633834378091706
aF14.769706685208803
aF6.705578992503433
aF4.841451299707842
aF4.077323606896243
aF14.513195913921663
aF4.649068221242487
aF3.28494052843962
aF4.920812835593097
aF17.95668514258068
aF10.092557449872402
aF7.528429757086997
aF10.164302064225922
aF4.300174371488538
aF3.736046678674029
aF5.971918985818775
aF7.307791292976617
aF5.843663600175205
aF24.67953590707839
aF14.815408214399213
aF5.85128052170694
aF4.187152828908438
aF7.423025136038632
aF5.95889744323722
aF5.394769750422711
aF6.130642057589284
aF5.066514364782051
aF4.302386671970453
aF4.738258979141392
aF6.874131286287593
aF5.910003593478905
aF6.645875900645478
aF6.5817482078236935
aF4.117620515036833
aF4.553492822207772
aF4.389365129387443
aF5.925237436542375
aF6.461109743711859
aF8.296982050862425
aF13.532854357963515
aF6.868726665237773
aF4.5045989724494575
aF4.140471279632038
aF5.176343586794246
aF4.5122158939811925
aF3.4480882011739595
aF9.083960508269229
aF5.119832815504196
aF4.555705122689687
aF3.5915774298809993
aF5.827449737025745
aF11.16332204412538
aF11.499194351297774
aF7.935066658526921
aF4.070938965760433
aF5.506811272916821
aF5.5426835800935805
aF4.878555887280527
aF7.814428194415086
aF4.150300501645688
aF27.2861728084863
aF27.422045115661604
aF17.557917422982428
aF13.093789730224671
aF5.129662037517846
aF11.965534344595653
aF3.9014066518902837
aF3.9372789590670436
aF7.173151266197237
asS'avg_freq'
p3
cnumpy.core.multiarray
scalar
p4
(cnumpy
dtype
p5
(S'f8'
p6
I0
I1
tp7
Rp8
(I3
S'<'
p9
NNNI-1
I-1
I0
tp10
bS'\x00\x00\x00\x00\x00\x00\x00@'
p11
tp12
Rp13
s.