(dp0
S'lifetimes'
p1
(lp2
F6.950221230261334
aF15.700442460522964
aF8.65066369078437
aF5.500884921045831
aF4.951106151307329
aF7.908501843033889
aF9.258723073294618
aF5.5161187650215595
aF5.2663399952823795
aF7.4237356870089855
aF10.581131378735535
aF6.93852707046247
aF5.488748300723358
aF5.1461439924501065
aF18.303539684176087
aF13.053760914437191
aF5.203982144698443
aF10.954203374958922
aF9.50442460521981
aF5.854645835480824
aF6.412041527207521
aF9.062262757471728
aF16.919658449202984
aF10.469879679465123
aF9.027275371194264
aF16.177496601459495
aF7.234892293186931
aF7.292287984916413
aF6.642509215179871
aF11.399904906910422
aF5.357300598638517
aF7.307521828902566
aF4.957743059165637
aF8.307964289430004
aF5.958185519693075
aF5.808406749956646
aF9.858627980221172
aF6.008849210483902
aF6.45907044074761
aF6.416466132477069
aF6.166687362740618
aF5.816908593004143
aF5.574304284733444
aF5.8316999764629145
aF4.6819212067262015
aF6.239316898455968
aF8.389538128720005
aF5.14693382044868
aF7.404329512178606
aF5.554550742441734
aF5.611946434171159
aF5.162167664434605
aF4.9195633561639625
aF9.469784586428545
aF5.227180278156993
aF5.17740150842053
aF9.234797200150865
aF7.485018430414016
aF6.0424141221431
aF6.099809813872525
aF6.557205505602042
aF7.807426735865874
aF4.657647966128707
aF17.715043657861088
aF9.165264888122692
aF11.622660579852663
aF6.672881810115086
aF14.930277501846376
aF7.087673193574005
aF5.545068885303067
aF6.902464577032788
aF10.752685807297212
aF5.9029070375596575
aF6.253128267823286
aF5.610523959552552
aF13.960745189817999
aF5.418140881545469
aF4.868362111808892
aF5.02575780353834
aF5.175979033801923
aF6.133374725531553
aF4.7835959557947945
aF9.833817186059491
aF6.18403841632221
aF14.741434108044132
aF4.584480876839507
aF6.8418765685560174
aF6.592097798808709
aF9.349493490524765
aF13.506889182239547
aF4.957110412499787
aF7.407331642750023
aF6.957552873002896
aF5.614948564722681
aF5.6651697949751
aF6.92256548669252
aF6.279961178411668
aF11.43735687012554
aF5.287578100383598
aF6.637799330634834
aF6.395195022353619
aF5.1525907140733125
aF58.40998640574344
aF48.9602076360045
aF39.11042886626592
aF41.46782455798234
aF34.52522024970722
aF29.475441479964275
aF22.332837171689334
aF14.790232863414758
aF6.247628555141091
aF7.505024246858511
aF13.655245477105382
aF6.905466707363985
aF6.25568793761704
aF6.405909167869368
aF5.1561303981229685
aF10.013526089837114
aF5.763747320093444
aF6.713968550345044
aF11.864189780592824
aF5.221585472317429
aF5.771806702569393
aF5.629202394288086
aF8.17942362453823
aF11.736819316253559
aF7.487040546509888
aF6.744436238229127
aF9.501831929945183
aF5.0520531602016945
aF7.209448851918296
aF5.359670082172443
aF6.009891312424315
aF7.660112542675279
aF11.417508234390425
aF11.067729464643207
aF6.3179506948999915
aF5.2681719251534105
aF5.618393155405556
aF9.075788847120975
aF9.433184538839214
aF12.183405769089177
aF5.640801460813691
aF7.591022691064381
aF9.348418382781347
aF7.698639613035311
aF6.556035304754914
aF7.106256535006878
aF7.256477765259206
aF5.60669899551317
aF6.264094687231136
aF5.114315917484646
aF4.971711609203339
aF10.129107300917212
aF5.279328531174087
aF6.336724222891689
aF16.394119914601106
aF6.9515156063282575
aF9.508911298044495
aF5.75913252830037
aF5.509353758553061
aF7.0595749888041155
aF5.509796219057989
aF25.960017449291854
aF16.610238679552822
aF8.560459909812607
aF5.217855601534211
aF5.475251293252541
aF5.232646984971325
aF17.58286821521233
aF13.14026390693516
aF25.8904851371758
aF38.24788082888335
aF39.09810205913482
aF33.855497750858376
aF41.312893442570385
aF31.15594021136576
aF22.013335903092866
aF11.856382671888241
aF7.2137783636112545
aF9.071174055328356
aF7.428569747048641
aF8.078790977300287
aF8.436186669018753
aF7.186407899272126
aF5.243803590992684
aF6.494024821243784
aF5.651420512963341
aF6.108816204681716
aF17.45903743492363
aF9.709258665182915
aF5.059479895439381
aF6.809701125690026
aF5.959922355943036
aF11.517318047656772
aF7.274713739379422
aF5.432109431099889
aF7.382330661350352
aF6.539726353069909
aF5.389947583323192
aF5.047343275042294
aF6.797564505292939
aF5.65496019701277
aF8.405181427262505
aF13.655402657509967
aF65.80562388771477
aF57.15584511797488
aF48.51324080970153
aF38.356287578496904
aF31.813683270221645
aF21.65673003901702
aF12.006951269278034
aF6.857172499534954
aF7.707393729786418
aF5.457614960040701
aF10.215010651755165
aF5.66523188201154
aF9.515453112260275
aF7.865674342514012
aF9.423070034231387
aF4.973291264487671
aF6.5235124947384975
aF15.280908186449324
aF13.138303878170063
aF5.995699569895351
aF7.05309526161318
aF7.710490953331373
aF4.760712183586293
aF6.01810787530394
aF8.175503567020769
aF7.232899258740417
aF5.683120488994064
aF5.440516180713075
aF5.890737410964903
aF5.848133102683732
aF4.998354332936742
aF4.955750024655572
aF5.813145716373583
aF4.663366946626866
aF6.020762638344422
aF4.870983868597705
aF15.328379560306985
aF6.6786007905670886
aF8.335996482284372
aF7.293392174004111
aF8.35078786572194
aF8.201009095974314
aF6.65123032622796
aF13.708626017940333
aF9.158847248196707
aF5.9162429399184475
aF5.266464170171275
aF10.516685400418737
aF7.366906630673839
aF6.12430232239376
aF4.98169801411359
aF5.439093705831965
aF5.08931493608452
aF9.14671062779962
aF6.796931858053995
aF6.854327549772734
aF7.40454878002447
aF8.054770010276115
aF7.212165701995673
aF6.962386932248137
aF6.219782623967603
aF6.870003854219249
aF9.327399545935805
aF7.577620776189633
aF9.635016467906553
aF9.092412159625837
aF7.549807851346031
aF5.907203543066316
aF12.957424773312141
aF7.307646003569516
aF6.257867233822708
aF5.408088464075718
aF4.9583096943283635
aF6.015705386046193
aF5.165926616299203
aF5.016147846551576
aF7.573543538268041
aF18.23093922997714
aF8.681160460238061
aF12.531381690486796
aF5.78877738221172
aF4.946173073931277
aF6.796394304181831
aF7.753789995899751
aF15.811185687611214
aF6.2614069178721365
aF6.418802609590784
aF11.969023839837973
aF4.819245070096713
aF6.3766407618140875
aF7.634036453531735
aF7.28425768378429
aF5.741653375504484
aF6.29187460575622
aF8.44927029747305
aF8.906665989191424
aF7.156887219445252
aF8.70710844969608
aF5.964504141417365
aF5.021899833137013
aF9.679295524851568
aF6.936691216572854
aF6.094086908292411
aF8.951482600008603
aF4.701703830264705
aF7.0519250605148045
aF5.609320752234908
aF5.759541982487008
aF5.409763212739563
aF4.8599844429923
aF8.517380134707764
aF4.567601364963593
aF5.624997056681423
aF5.575218286933705
aF12.732613978645986
aF7.582835208902907
aF5.4402309006236464
aF5.097626592342749
aF11.555022284055667
aF9.205243514310041
aF8.955464744562505
aF5.012860436284882
aF6.17025612800262
aF10.727651819717266
aF4.8778730499748235
aF7.928094280224286
aF7.578315510476841
aF8.935711202194398
aF10.385932432445315
aF17.743328124157415
aF9.493549354417155
aF5.450945046139623
aF5.5083407378583615
aF11.065736429572098
aF4.823132121296567
aF5.17335335154894
aF8.930749043324795
aF5.380970273608909
aF5.631191503906848
aF7.781412734211699
aF6.538808425969364
aF8.696204117739398
aF6.353599809493062
aF5.603821039787363
aF5.454042270083846
aF5.311437961845513
aF6.461659192146726
aF7.211880422446484
aF5.362101652736783
aF12.019497344523188
aF5.376893036261208
aF5.63428872802433
aF5.3916844197856335
aF7.049080111553849
aF9.499301341859791
aF6.356697033610544
aF5.20691826390339
aF5.157139494200237
aF7.114535185969544
aF6.164756416263117
aF5.422152108022601
aF5.572373338320176
aF5.529769030082207
aF4.979990260377235
aF6.237385952143995
aF6.087607182440479
aF8.045002874209786
aF14.70239856599619
aF6.052619796261752
aF8.710015488033605
aF9.860236718334818
aF6.817632410085935
aF9.767853640393696
aF7.625249332148087
aF5.075470562435839
aF11.832866254222608
aF6.083087484498719
aF9.040483176271664
aF5.090704406554323
aF5.748100098318901
aF6.20549579008275
aF7.455717020384327
aF7.713112712147449
aF9.06333394244939
aF5.420729634198324
aF7.078125325966539
aF9.435521017737301
aF13.29291670951352
aF5.350312401246811
aF12.000533631568032
aF4.750754861838686
aF5.000976092136625
aF9.851197322451299
aF6.601418552736504
aF21.151639783086466
aF12.009035474815391
aF8.459256705099506
aF5.509477935385803
aF7.866873627156565
aF36.42426931902264
aF26.26731608781847
aF17.42471177954849
aF9.174933009815504
aF7.932328701573169
aF8.782549931873291
aF7.3399456236302285
aF7.9901668539296224
aF13.547562545712026
aF6.704958237449318
aF5.155179467740709
aF5.012575159502376
aF4.862796389798859
aF5.320192081562709
aF6.470413311863922
aF8.72780900363432
aF4.578030233916252
aF7.0354259256873775
aF5.085647155977313
aF5.643042847741526
aF28.89326407812314
aF20.250659769853883
aF11.4080554615839
aF10.158276691876381
aF6.108497922158676
aF4.758719152450794
aF11.816114844238655
aF6.166336074515129
aF7.323731766281526
aF18.073952996617663
aF10.424174226886862
aF10.874395457185528
aF7.731791148936281
aF6.982012379230582
aF8.639408070998797
aF4.9968037627477315
aF17.354199454554873
aF13.01159514630126
aF8.861816376583192
aF13.31203760689641
aF19.962258837217632
aF16.91965452896875
aF7.769875759232491
aF7.227271450992703
aF5.577492681283729
aF5.53488837304576
aF6.592284064811793
aF9.049679756582918
aF7.607075448339856
aF6.557296678633065
aF7.507517908933551
aF6.057739139225305
aF5.715134830986244
aF7.365356061289276
aF6.422751753048033
aF9.18014744482025
aF6.737543136573549
aF7.7877643668743985
aF6.945160058633519
aF4.7953812889227265
aF6.1527769806898505
aF4.602998210981241
aF5.753219441282454
aF11.703440671601129
aF5.353661901875057
aF5.411057593637452
aF5.068453285398391
aF6.425848977165515
aF8.576070207470366
aF11.133465899241855
aF6.790861590988243
aF6.948257282751001
aF4.898478513040573
aF6.455874204808424
aF7.713269896575184
aF5.863491126865483
aF5.620886818626786
aF7.071108048929091
aF14.528503740718406
aF6.685899432452061
aF7.843295124218457
aF7.393516354513849
aF6.6509120462733335
aF9.301133276580003
aF5.651354506863754
aF6.901575737165331
aF6.851796967462178
aF21.10201819781105
aF12.252239428075882
aF5.302460658347627
aF5.152681888644111
aF8.910077580419966
aF5.060298810702989
aF5.117694502465383
aF5.367915732763322
aF8.118136963070356
aF6.168358193360291
aF6.618579423658957
aF6.96880065395726
aF43.926196345853896
aF33.769243114649726
aF23.612289883445555
aF14.26251111370857
aF6.819906805443679
aF5.27012803573507
aF4.820349266030462
aF6.877744957800132
aF5.335140649556706
aF5.685361879855009
aF6.44275757161995
aF6.0001532633805255
aF5.250374493674826
aF10.707770185456866
aF7.957991415743891
aF5.815387107498282
aF6.365608337797312
aF9.223004029569893
aF6.873225259858373
aF6.430620951618948
aF5.988016643379524
aF6.745412335144465
aF6.202808026904677
aF15.753029257236449
aF6.710424948965738
aF4.9606461792564005
aF5.3180418710198865
aF5.16826310131637
aF5.62565879308022
aF5.283054484841159
aF5.9404501766057365
aF5.2978458683655845
aF5.455241560128343
aF8.80546279043756
aF5.655684020723129
aF6.605905251023614
aF5.656126481317187
aF5.806347711614762
aF7.556568941918158
aF7.81396463368128
aF5.664185863970488
aF6.921581555737248
aF6.47180278603264
aF6.329198477794307
aF6.079419708090427
aF6.436815399853913
aF5.994211091614488
aF6.951606783380157
aF5.90900247513855
aF6.2592237054368525
aF5.516619397196337
aF5.266840627492456
aF6.724236319259944
aF7.581632011025249
aF4.839027702777457
aF6.789248933081581
aF6.646644624843248
aF5.104040316599821
aF5.1542615468970325
aF6.911657238665612
aF7.861878468966097
aF5.012099699252758
aF6.369495391019882
aF10.826891082798284
aF15.584286774577777
aF10.534508004856434
aF9.284729235148916
aF8.342124926907672
aF18.399520618706447
aF16.3569163104612
aF8.014312002193037
aF5.664533232481517
aF5.721928924243912
aF7.172150154546216
aF7.0223713848427
aF5.772592615135181
aF7.0299883069019415
aF4.8873839986563326
aF5.54477969042091
aF11.202175382203677
aF4.752396612477241
aF6.409792304245457
aF6.060013534541213
aF6.71740922630579
aF7.067630456604093
aF4.717851686892573
aF6.76807291719706
aF7.025468608960182
aF5.8756898392530275
aF7.833085531022334
aF5.983306761312633
aF4.840702453070662
aF5.59092368337042
aF5.048319375130632
aF5.705715066895209
aF4.95593629718951
aF7.006157527493997
aF8.256378757795574
aF7.413774449554694
aF6.063995679846812
aF15.721391371644131
aF7.671612601911875
aF6.029008293668085
aF15.58640398546504
aF8.443799677201241
aF7.194020907493723
aF9.851416599265576
aF5.708812291012691
aF6.159033521311358
aF6.316429213074116
aF8.866650443380422
aF12.224046135154822
aF6.1742673654298414
aF7.13166305719551
aF5.089058748950265
aF4.739279979246021
aF15.096675671045887
aF6.95407136277845
aF5.411467054535024
aF5.86168828483369
aF5.411909515129082
aF4.962130745424474
aF5.812351975724596
aF5.362573206019988
aF6.019968897784565
aF6.677364589549143
aF7.234760281313356
aF8.984981511616752
aF7.742377203374417
aF10.099772895145179
aF5.05716858688902
aF5.414564278652506
aF5.364785508949353
aF9.322181200725936
aF5.272402431008231
aF14.229798122803004
aF6.580019353072203
aF5.537415044830595
aF5.387636275127079
aF5.145031966888382
aF7.895253197195416
aF5.752648888949807
aF12.710044580737303
aF9.660265811023237
aF5.310487041304441
aF8.060708271611475
aF5.618103963364774
aF5.575499655126805
aF6.332895346891746
aF12.183116577210058
aF14.333337807514908
aF6.283559037782652
aF5.540954729542136
aF16.698350421344912
aF8.355746113076748
aF7.313141804835141
aF5.170537496589532
aF5.220758726886743
aF12.17815441867424
aF4.728375648944166
aF6.485771340712745
aF5.835992571007409
aF4.793388262765802
aF12.350783954555482
aF5.908179646294229
aF7.858400876598353
aF14.708622106920302
aF8.258843337193866
aF5.009064567479072
aF10.359285797795565
aF11.909507028098233
aF10.659728258390714
aF5.609949488669372
aF7.467345180438315
aF5.324740872192706
aF6.574962102494283
aF5.732357794253403
aF5.2897534860139785
aF14.44714917780766
aF6.304544869539313
aF16.55476609987454
aF8.504987330143194
aF5.755208560431129
aF6.312604252194433
aF7.762825482497647
aF7.813046712795767
aF10.463267943103347
aF9.913489173399284
aF11.863710403704317
aF7.521106095449795
aF5.871327325741731
aF8.728723017513403
aF6.178944247802065
aF7.736339939569007
aF5.693735631322852
aF6.143956861622428
aF5.501352553381366
aF31.15157378377262
aF46.008969475587946
aF39.159190705860965
aF30.416586397590436
aF20.259633166386266
aF11.717028858116464
aF5.167250088390574
aF7.0246457801586075
aF5.382041471913908
aF8.039437163684852
aF5.0896583939720585
aF5.747054085735726
aF5.004449777494301
aF12.754671007820434
aF4.912066699553179
aF4.6622879298502085
aF5.2196836216135125
aF8.369904851922911
aF5.327300543673118
aF5.277521773970875
aF7.534917465740364
aF5.185138696029753
aF6.042534387794149
aF6.89275561809518
aF7.650151309859211
aF7.607547001620333
aF7.157768231916634
aF6.4079894622118445
aF23.058210692570356
aF13.715606384297644
aF10.065827614582304
aF5.6160488448640535
aF6.77344453662954
aF40.13084022851217
aF38.98823592026929
aF29.845631611997305
aF21.803027303729323
aF12.153248533992155
aF6.710644225733631
aF5.560865456027386
aF6.611086686329145
aF5.1613079166218085
aF5.618703608384749
aF6.476099300149144
aF5.926320530445082
aF9.583716222219664
aF5.4411119139658695
aF6.891333144269083
aF5.341554374561383
aF6.598950066327234
aF5.656345758085081
aF6.006566988384293
aF28.256788218763177
aF18.707009449026373
aF12.157230679300483
aF5.714626371038321
aF6.664847601339716
aF5.415068831633107
aF7.565290061938867
aF11.422685753714177
aF7.9729069839995645
aF6.830302675756684
aF11.280523906070812
aF5.837919597812288
aF5.29531528957159
aF5.952710981335258
aF6.1029322116337426
aF6.153153441931863
aF5.710549133691529
aF7.76794482546029
aF5.525340517213408
aF25.175561747582833
aF18.632957439320307
aF8.476004208116137
aF6.333399899869619
aF4.890795591625647
aF9.048191283402048
aF5.19841251368598
aF5.1558082054471015
aF6.313203897212588
aF5.070599588969344
aF7.4279952807391965
aF5.785390972494497
aF9.642786664269806
aF8.10018235602547
aF5.250403586313041
aF7.400624816618802
aF8.250846046919833
aF13.308241738699508
aF4.858462968966705
aF11.915858660753656
aF10.666079891047048
aF6.81630112133098
aF33.46652235172587
aF25.216743581993796
aF16.966964812261722
aF7.724360503989374
aF7.474581734286403
aF9.124802964590344
aF5.775024194876096
aF5.025245425171306
aF16.575466655511264
aF7.82568788577737
aF13.67590911609659
aF7.633304807835884
aF8.08352603813546
aF6.840921729892216
aF4.998317421646789
aF6.455713113413367
aF8.413108805181764
aF8.263330035479157
aF5.5135512657670915
aF20.663772496120146
aF13.921168187856892
aF6.171389418126637
aF5.2216106484211195
aF5.079006340181877
aF5.636402031945181
aF6.7866232622473035
aF6.444018954007333
aF7.494240184309092
aF14.544461414632678
aF9.194682644911154
aF5.252078336658087
aF13.602299566986403
aF10.552520797273246
aF6.309916489019088
aF5.560137719314298
aF4.910358949609872
aF6.36775464137645
aF7.025150333140118
aF5.782546024896874
aF6.439941716660542
aF5.990162946956843
aF6.547558638720147
aF5.904954330479086
aF6.355175560778662
aF16.10539679111207
aF13.662792482864461
aF6.820188174600844
aF5.070409404892416
aF5.020630635190173
aF5.778026326954205
aF7.735422018722602
aF6.29281771047863
aF5.450213402236841
aF4.900434632532779
aF5.250655862831991
aF8.108051554603662
aF5.8582727848934155
aF5.015668476651626
aF5.5730641684149305
aF7.723285398720691
aF7.47350662901772
aF6.223727859311111
aF5.17394908960523
aF8.224170319914265
aF5.374391550201835
aF5.931787241965139
aF4.982008472259622
aF9.239404164036387
aF8.689625394332325
aF6.847021086086897
aF7.797242316388292
aF5.154638008139955
aF8.012033699911626
aF4.7622549301977415
aF5.8124761604995
aF5.762697390797257
aF5.412918621093922
aF10.463139851410233
aF33.82053554325648
aF23.663582312052313
aF16.313803542323512
aF12.371199234070446
aF6.328594925809739
aF8.278816156114772
aF5.236211847864979
aF5.3864330781634635
aF10.943828769944957
aF11.101224461706806
aF6.251445691987101
aF10.20166692229941
aF9.551888152594984
aF8.709283844353195
aF16.2595050746786
aF10.416900766418621
aF4.867121996696369
aF12.617343227022502
aF4.96756445729261
aF7.824960149064282
aF5.382355840816672
aF5.739751532579248
aF10.297147224357104
aF5.3545429161003995
aF6.211938607864795
aF5.662159838160733
aF5.012381068456307
aF6.562602298759884
aF5.019997990515549
aF5.670219220815852
aF4.820440451110699
aF6.47066168141464
aF5.928057373173942
aF9.178278603483705
aF6.928499833773458
aF5.778721064067213
aF7.236116755833791
aF11.786337986148283
aF5.743733677887576
aF6.401129369651244
aF6.551350599949728
aF6.401571830247121
aF5.651793060542332
aF5.1020142908382695
aF6.152235521140028
aF5.302456751434875
aF5.052677981731904
aF5.402899212031116
aF9.260294903806425
aF7.510516134097998
aF7.460737364395754
aF8.418133056160514
aF5.668354286448448
aF6.325749978212116
aF5.3759712085065985
aF6.233366900270994
aF5.690762592030296
aF9.94815828380706
aF5.298379514088083
aF5.955775205851751
aF10.013170897627788
aF6.963392127914631
aF6.313613358210205
aF6.263834588507962
aF5.014055818801353
aF15.864277049138764
aF11.821672740885333
aF5.671893971160898
aF5.529289662921656
aF7.4795108932266885
aF5.836906584981989
aF8.887127815291024
aF8.244523507049962
aF5.894744737339352
aF6.652140429103383
aF14.302361659429152
aF5.2525828896941675
aF6.909978581461473
aF8.660199811765779
aF6.617595503519624
aF6.267816733816289
aF7.318037964118048
aF5.968259194411075
aF10.718480424726295
aF6.175876116471045
aF5.333271808229256
aF34.48349303863324
aF25.433714268898257
aF19.083935499173094
aF12.034156729445385
aF6.29155242118577
aF5.048948112942526
aF12.699169343268295
aF12.456565035028689
aF8.506786265312257
aF6.557007495603102
aF17.51440318740424
aF8.17179887913153
aF8.429194570893742
aF10.286590262661775
aF6.336811492945344
aF5.287032723239463
aF5.544428415001676
aF5.301824106762069
aF5.0520453370590985
aF6.309441028824949
aF4.759662259117249
aF8.909883489430285
aF5.2601047197149455
aF8.610325950025072
aF7.260547180318099
aF5.017942872071217
aF5.6753385638348846
aF5.232734255594551
aF7.582955485901039
aF11.540351177676712
aF4.897746869413822
aF7.255142561183675
aF5.905363791476702
aF16.95558502181484
aF7.305806252077673
aF8.356027482379432
aF7.413423174137279
aF5.963644404429942
aF6.121040096191791
aF15.271261326523017
aF6.82865701825358
aF7.378878248553519
aF5.329099478844
aF14.079320709173771
aF5.236716400902878
aF4.986937631199908
aF7.537158861507123
aF6.387380091800878
aF6.744775783563455
aF5.994997013858665
aF13.452392705647071
aF5.70978839738018
aF5.067184089139118
aF5.324579780901331
aF5.874801011201271
aF13.13219670298895
aF5.082417933257602
aF7.139813625026363
aF6.490034855321937
aF8.540256085627334
aF7.890477315922908
aF6.847873007680391
aF5.305268699436056
aF5.562664391198268
aF5.3128856214952975
aF8.663106851805424
aF5.020502543553448
aF4.770723773850477
aF5.128119465613054
aF8.878340695924635
aF6.435736387677025
aF8.293132079445058
aF9.450527771210545
aF5.707923462958206
aF5.558144693255599
aF4.608365923550082
aF10.758587153870394
aF5.615982845612962
aF10.06620407592709
aF4.916425306206293
aF11.866646536529515
aF8.516867766815267
aF5.46708899710211
aF7.024484688869052
aF4.981880380622897
aF8.93927607239857
aF4.989497302682139
aF6.546892994449081
aF25.297114224815232
aF16.854509916545794
aF8.904731146814811
aF5.554952377100562
aF10.112348068878418
aF9.462569299173992
aF11.819964990943845
aF5.777360682683138
aF23.234756374507924
aF13.584977604770756
aF6.642373296506776
aF8.599768988275173
aF6.057164680027199
aF7.107385910328958
aF6.357607140624168
aF6.915002832387472
aF4.965224062678317
aF12.922619754468542
aF10.380015446220568
aF8.337411137974414
aF8.587632368273262
aF8.545028060034383
aF5.50242375178459
aF16.952644982124184
aF10.21004067386093
aF11.360261904163053
aF20.71765759595837
aF13.367878826229571
aF6.225274517964863
aF8.57549574827135
aF9.132891440034655
aF6.3902871317859535
aF8.547682823555078
aF5.505078515305286
aF4.555299745599768
aF6.8055209759058926
aF4.65574220619601
aF11.613137897982597
aF16.67053358976227
aF10.327929281500474
aF5.5853249732444965
aF11.14272066502599
aF6.100116356768922
aF8.45033758707541
aF5.60055881736298
aF15.450780047696753
aF9.701001277973774
aF5.451222508256251
aF7.0014437385598285
aF6.151664968854675
aF12.709060660639807
aF7.759281890919738
aF9.416677582687043
aF10.766898812989893
aF8.61712004328001
aF8.267341273576676
aF12.724736965354168
aF7.674958195633735
aF12.532353887412683
aF7.6897495791563415
aF6.647145270913825
aF5.1973665012064885
aF6.7547621929734305
aF6.41215788473346
aF5.662379115028671
aF22.712600345388637
aF13.162821575651833
aF6.920217267390399
aF5.370438497682699
aF7.0278341894500045
aF17.678055419786688
aF12.028276650064072
aF9.885672341817553
aF6.343068033565942
aF4.593289263857514
aF5.350684955621546
aF5.000906185918211
aF4.651127416214877
aF7.101348646521728
aF6.851569876818758
aF11.70179110713434
aF7.452012337416818
aF6.209408029173574
aF5.1596292594676925
aF7.017024951235726
aF5.974420642993209
aF8.53181633476379
aF16.989212026555833
aF11.346607718296582
aF9.196828948586699
aF10.054224640351094
aF8.01162033210494
aF8.06184156240306
aF7.319237254161635
aF5.176632945915117
aF5.3340286376769654
aF6.384249867978724
aF13.341645559765311
aF6.099041251500239
aF4.9564369432573585
aF5.313832635019935
aF32.66405386541737
aF23.621449557145752
aF16.671670787418407
aF10.229066479156245
aF5.386462170899904
aF5.443857862661389
aF9.201253554436335
aF5.751474784721722
aF5.901696015020207
aF8.551917245327786
aF6.802138475619358
aF11.452359705934214
aF6.602580936214508
aF7.952802166517358
aF6.910197858274842
aF9.360419088581693
aF9.917814780344997
aF5.975210472091931
aF10.832606163870878
aF5.4828273941493535
aF4.940223085908656
aF7.290444316215144
aF9.440665546520904
aF6.390886776807747
aF5.948282468567413
aF6.205678160329626
aF6.155899390627383
aF5.113295082384866
aF5.563516312684442
aF5.720912004446291
aF5.771133234744411
aF9.928528926520812
aF8.378750156813112
aF5.828971387101774
aF5.479192617398439
aF5.329413847695832
aF5.18680953945659
aF5.344205231218439
aF5.594426461517287
aF5.551822153278408
aF7.0092178450449865
aF4.959439075335467
aF7.016834767104228
aF18.57423045890755
aF10.824451689177295
aF5.47467291945577
aF5.532068611217255
aF8.189464302988199
aF7.946859994748593
aF6.397081225040893
aF6.454476916802378
aF11.604698147119052
aF5.454919377394617
aF5.9123150691575574
aF5.869710760918679
aF4.727106452675798
aF6.077327682978648
aF5.234723374736859
aF12.084944605059718
aF6.242340296799739
aF11.299735988579414
aF6.6571316803238005
aF5.51452737208092
aF6.964748602384134
aF7.122144294145983
aF5.372365524437555
aF10.829761216218685
aF11.979982446520808
aF30.43737813834923
aF21.287599368613883
aF18.54499506036518
aF13.895216290646204
aF6.552611982380768
aF5.102833212673431
aF6.053054442974826
aF4.703275673267854
aF5.453496903568521
aF6.103718133868824
aF6.653939364168764
aF13.204160594490531
aF6.454381824763914
aF10.711777516540678
aF6.2691732082857925
aF6.92656890004946
aF5.976790130343943
aF7.034185822109066
aF6.484407052405004
aF9.641802744177767
aF6.8991984359290655
aF7.656594127693097
aF5.106815357981759
aF7.257036588287519
aF12.314432280067194
aF8.364653510350763
aF14.11487474066962
aF9.465095970950642
aF7.3153172012407595
aF8.672712893006974
aF7.730108584764821
aF22.280329815115692
aF24.73772550688591
aF15.987946737152015
aF9.545342428889853
aF8.795563659185063
aF6.25295935093709
aF6.010355042697483
aF10.860576273013066
aF19.417971964805474
aF11.768193195075582
aF9.5255888868287
aF8.882984578587639
aF7.840380270345122
aF5.997775962099695
aF5.555171653859361
aF6.812567345625212
aF5.962788575920058
aF6.220184267682271
aF5.870405497978936
aF5.8278011897400575
aF11.47802242005855
aF5.935418111799663
aF5.292813803558602
aF5.550209495320814
aF5.507605187081936
aF17.457826417423348
aF11.808047647700732
aF7.46544333944621
aF5.0228390311986
aF6.980234722966998
aF5.437630414722662
aF9.88785164503679
aF5.545247336782268
aF4.795468567077478
aF6.252864258844056
aF11.40308548916073
aF7.053306719442844
aF5.310702411197781
aF8.660923641507907
aF8.118319333267209
aF6.8685405635606
aF8.225936255326815
aF5.076157485613294
aF21.126378715969622
aF13.276599946239003
aF6.033995637973931
aF5.891391329734688
aF9.841612560046997
aF5.999008251794294
aF5.156403943552505
aF5.3137996353143535
aF5.464020865612838
aF7.721416557382327
aF7.871637787680811
aF5.029033479431746
aF10.279254709748784
aF5.136650401491352
aF5.0868716317891085
aF7.444267323558961
aF7.19448855385599
aF6.05188424561311
aF5.102105475907592
aF5.952326706208623
aF6.409722397971564
aF5.3599436282656825
aF6.01733932002935
aF7.667560550333292
aF14.817781780657242
aF9.26800301093499
aF4.81822424121674
aF6.9684454715225
aF8.22584116328835
aF4.676062393573375
aF6.1262836238765885
aF9.476504854186715
aF5.126726084468828
aF5.084121776229949
aF7.741517468000893
aF6.691738698295012
aF9.44913439006632
aF5.699355620350616
aF6.756751312115739
aF6.406972542412404
aF5.7571937727079785
aF4.914589464466189
aF7.86481069477486
aF11.322206386548714
aF4.979602078286916
aF6.036997770052039
aF6.294393461814252
aF14.751789153606296
aF6.009184845335767
aF4.859406075629522
aF11.216801767413926
aF5.167022997689855
aF5.117244227987612
aF20.167465458340303
aF20.717686688640242
aF11.667907918905257
aF7.718129149188826
aF5.968350379480398
aF5.318571609775972
aF22.675967301600394
aF13.733362993329138
aF10.083584223613798
aF6.240979915361095
aF8.991201145669038
aF9.74859683743307
aF6.705992529183277
aF6.156213759479215
aF6.313609451241064
aF9.66383068155119
aF6.414051911837305
aF6.871447603600245
aF5.221668833892181
aF5.571890064191393
aF12.829285755979072
aF8.57950698626155
aF6.5369026780153945
aF18.087123908138892
aF11.444519599823252
aF8.70191529145086
aF7.0521365215936385
aF8.102357751697127
aF4.7525789818646444
aF5.70997467343841
aF5.060195903566637
aF10.710417133603187
aF5.360638363799808
aF17.91085959373595
aF10.961080823955854
aF4.911302054162661
aF4.961523284280702
aF6.511744514376915
aF4.8619657445196935
aF8.719361436051258
aF4.969582666224596
aF4.926978357812914
aF6.577199587907671
aF5.834595279506175
aF7.284816509603843
aF21.042212200991344
aF12.399607892704807
aF7.357003584365884
aF5.8143992759760295
aF5.8717949675628915
aF6.422016197673656
aF8.072237427768414
aF5.829633119388745
aF7.279854349486413
aF5.437250041100924
aF5.38747127122042
aF19.237692501137644
aF10.995088192845287
aF7.352483884485991
aF4.902705114640412
aF13.252926344637672
aF5.903147574863397
aF10.15336880492032
aF5.81076449657121
aF5.060985726700892
aF5.618381418280478
aF6.468602648386877
aF7.625998339957732
aF9.376219570051035
aF9.733615261633531
aF5.091010953288787
aF6.748406644852366
aF6.898627874968952
aF15.556023566430667
aF6.306244796684041
aF8.856466026765702
aF10.71386171832637
aF5.671257409987447
aF4.72147864012004
aF5.271699870230805
aF5.129095561820577
aF4.779316791944439
aF6.036712483513838
aF6.686933713623148
aF8.044329405191093
aF9.69455063528585
aF4.844771865475195
aF9.502167556995119
aF7.452388787143718
aF6.309784478748043
aF9.867180170283973
aF15.924575861783524
aF8.374797092012159
aF4.932192783649953
aF5.982414013753441
aF5.33980970535049
aF4.990030935474351
aF17.44742662688077
aF11.904822318549122
aF9.655043548700633
aF9.012439240297681
aF7.5626604704375495
aF35.7200561616155
aF34.67027739174955
aF29.220498621947627
aF20.270719852196635
aF14.020941082406353
aF5.871162312643719
aF7.7285580042043875
aF8.285953695783974
aF5.94334938740576
aF4.893570617539808
aF5.250966309122305
aF7.608362000675697
aF7.758583230792283
aF8.515978922368959
aF5.066200152537931
aF8.316421382609406
aF6.466642612755095
aF5.324038304359419
aF8.974259534425073
aF6.624480764578038
aF7.774701994680072
aF5.732097686297493
aF4.682318916431541
aF7.539714607977658
aF4.889935838134988
aF5.34733152971603
aF6.997552759810787
aF5.154948451425298
aF5.812344143003429
aF6.569739834580105
aF6.727135526165512
aF14.784531217635958
aF11.941926909265021
aF4.792148139487836
aF12.449543830964103
aF7.899765061149083
aF5.9571607527650485
aF7.314556444332993
aF4.97195213595478
aF6.02934782752709
aF6.3867435191095865
aF6.944139210689173
aF6.6015349022818555
aF4.751756132427545
aF5.201977362539765
aF4.752198592665081
aF10.009594284176274
aF5.459815514361253
aF5.217211205952481
aF7.367432436039962
aF5.8248281276501075
aF5.975049357766693
aF6.232445049350645
aF7.682666279448313
aF6.140061971058458
aF8.397457662613306
aF6.254853354232182
aF6.6122490458146785
aF5.362470275951637
aF4.712691506079864
aF19.162912735988357
aF21.020308427549026
aF12.877704119255213
aF5.935099810943939
aF7.392495502510428
aF5.2498911941293045
aF5.307286885716167
aF6.057508115824021
aF5.814903807415249
aF6.872299498987559
aF5.129695190600614
aF6.579916420698282
aF7.037312112279324
aF5.387533342422103
aF9.744929033946391
aF7.595150264096446
aF11.152545955632377
aF10.60994164722797
aF10.067337338823563
aF5.22473303048173
aF7.382128722038033
aF7.33952441362635
aF11.889745643678907
aF7.347141335332708
aF4.997362565485673
aF5.854758257060894
aF10.904979487106175
aF6.655200717286789
aF6.005421947415016
aF5.0556431775476085
aF5.213038869133015
aF4.763260099258332
aF12.513481329264323
aF11.66370255939546
aF5.721098251069634
aF7.471319481162936
aF7.721540711278067
aF9.771761941367004
aF5.421983171549073
aF4.7722044016773
aF10.522425631712395
aF6.372646861891553
aF12.730042553386738
aF9.687438245018711
aF7.144833936643408
aF7.095055166762904
aF30.152450858015072
aF25.602672088200052
aF24.15289331833992
aF14.710289010065026
aF5.960510240311123
aF10.017905931839778
aF6.668127162007295
aF7.725522853579605
aF9.175744083677273
aF5.133139775323798
aF5.483361005437473
aF6.333582235543872
aF6.0909779271351
aF7.648373618700134
aF6.398594848837092
aF18.25599054025224
aF18.713386231833283
aF10.063607462077925
aF6.621003153715719
aF9.57122438379156
aF5.021445613976539
aF7.078841305534297
aF6.836236997125525
aF18.99363268853631
aF10.851028380242496
aF8.201249610399827
aF8.651470840512047
aF9.108866532093089
aF10.859087762186391
aF5.416483453853289
aF7.96670468393495
aF5.424100375559647
aF7.281496067120315
aF6.631717297248542
aF6.081938527375314
aF6.939334218950535
aF15.689555448941974
aF7.446951140649617
aF5.197172370801127
aF6.354568062371982
aF6.1119637539632095
aF6.862184984071064
aF5.612406214208022
aF6.662627444311511
aF13.920023135793599
aF5.477418827504152
aF7.734814519059
aF7.092210210656049
aF9.249605902212352
aF6.9070015938341385
aF5.057222823979828
aF10.407444054020743
aF6.257665284199902
aF6.01506097579113
aF6.965282205896074
aF5.715503436033032
aF6.765724666136521
aF11.823120357650623
aF6.373341587848699
aF8.130737279410823
aF5.288132971039886
aF5.445528662625293
aF6.302924354200513
aF7.1531455843069125
aF8.410541275876312
aF5.260762506040919
aF5.71815819762196
aF12.475553889111325
aF5.432949580801505
aF6.79034527236945
aF9.447740963918477
aF9.005136655512615
aF5.355357885684498
aF7.1055791157778
aF5.0558003459264
aF11.606021575949853
aF10.656242806082446
aF5.406464036277612
aF5.563859727863019
aF11.321255419366935
aF5.778651111035288
aF6.236046802616329
aF5.88626803274019
aF13.636489262746181
aF6.286710492971906
aF6.144106184561679
aF6.994327414668078
aF21.451723106045392
aF14.909118797728297
aF11.05934002790309
aF6.3167357195598015
aF6.766956949672021
aF5.424352641279256
aF11.274573871312896
aF5.631969562982704
aF13.789365254451695
aF6.946760946138966
aF11.396982176192978
aF5.7472034063939645
aF5.704599097982282
aF5.9619947895662335
aF11.712216019601328
aF5.062437249816867
aF6.719832941380446
aF9.070054171465017
aF8.027449863067886
aF6.077671093215031
aF6.135066784801893
aF14.985288014791877
aF5.942683706511161
aF9.100079398052912
aF4.550300628237892
aF6.300521858331194
aF5.950743088455056
aF6.308138780037552
aF8.35836001012649
aF5.815755701751186
aF5.765976931870682
aF14.123372623336763
aF9.273593853526108
aF9.130989545115881
aF6.2883852367449435
aF13.945780928221211
aF33.50317661952431
aF24.75339784977041
aF15.910793541486782
aF7.4610147717285145
aF10.51841046327172
aF6.068631693455245
aF5.126027385056659
aF6.8762486151499616
aF6.4336443067441
aF9.391039998288761
aF7.548435689903272
aF5.305831381523603
aF7.456052611611085
aF5.10627384176405
aF5.156495071882091
aF8.313890763423842
aF8.864111993534607
aF4.81433322371231
aF8.16455445378233
aF5.8219501454041165
aF5.372171375529433
aF7.922392605611094
aF13.772613835644734
aF17.622835065707477
aF16.67305629584007
aF7.423277526093443
aF4.873498756249319
aF4.930894447836181
aF12.288290139316814
aF4.94568583101136
aF6.20308152258076
aF5.653302752707532
aF5.603523982827028
aF8.253745212907234
aF5.2111409045392065
aF8.361362134612136
aF8.518757826197543
aF5.968979056353419
aF5.0192002864860115
aF5.976595978059777
aF6.726817208167631
aF4.8770384383133205
aF4.834434129901638
aF6.684655359993485
aF6.8348765901100705
aF5.192272281721671
aF6.449667973291071
aF7.699889203391649
aF5.357284895013436
aF8.707506125083455
aF7.657727355217503
aF13.707948585248232
aF5.258169815489964
aF17.21556550690366
aF7.565786737162853
aF5.323182428783184
aF5.973403658892494
aF7.7307993504546175
aF5.981020580598852
aF6.631241810708161
aF6.8814630408232915
aF18.93885873223553
aF9.896254423954815
aF4.953650115614437
aF6.703871345707739
aF21.454092575611867
aF13.104313805852144
aF8.454535036038578
aF5.804756266195909
aF8.75497749627175
aF7.305198726411618
aF6.055419956548576
aF8.512815648100513
aF8.963036878212733
aF5.420432569851982
aF5.677828261435934
aF12.628049491453567
aF5.078270721682202
aF6.9356664132428705
aF4.985887643390015
aF12.243283334872103
aF5.700679026555008
aF5.15090025668178
aF7.401121486767806
aF9.751342716852378
aF5.501563947032992
aF6.4517851771379355
aF10.002006407205045
aF5.652227637387114
aF7.90244886747314
aF15.85267009747622
aF6.91006578919405
aF6.460287019319367
aF5.91768271091496
aF5.767903941035911
aF7.925299632592214
aF4.9755208627539105
aF8.725742092818109
aF5.075963322989992
aF5.233359014575399
aF6.883580244670156
aF6.14097593626866
aF8.391197166354686
aF5.441418396516383
aF5.391639626635879
aF7.449035318193637
aF5.499256548340782
aF7.856652239894174
aF5.50687347004714
aF6.957094700144808
aF4.907315930293407
aF20.857537160180073
aF21.607758390287927
aF14.057979620516562
aF11.708200850669527
aF6.058422080870514
aF13.715817772346782
aF7.06603900256232
aF6.723434694155003
aF5.580830385759327
aF5.838226077343279
aF13.488447307350725
aF9.03866853753425
aF7.8888897676697525
aF5.639110997821263
aF7.989332227905834
aF7.146727919505793
aF9.096949149596185
aF8.154344841197599
aF5.50456607135493
aF5.354787301475881
aF5.312182993064198
aF6.762404223161866
aF4.819799914777832
aF7.377195606328314
aF6.134591297934094
aF5.584812528060866
aF9.742208219588065
aF7.1924294497439405
aF6.049825141348265
aF5.607220832942403
aF5.664616524529265
aF7.122012216095754
aF5.472233446238533
aF6.422454676343477
aF6.172675906465884
aF7.130071598039649
aF9.987467289585766
aF5.644862981236656
aF5.8950842113517865
aF4.9524799029532005
aF6.4027011330508685
aF7.652922363151447
aF13.110318054659729
aF6.060539284881088
aF16.417934976318065
aF10.868156206517597
aF6.618377436698211
aF9.368598666776961
aF9.118819896899367
aF6.169041127061064
aF8.226436818618822
aF7.776658048744139
aF8.734053740317904
aF12.691449431848014
aF5.748845123536739
aF4.906240815136698
aF4.956462045254739
aF8.906683275316027
aF4.956904505492275
aF6.107125735594309
aF12.057346965626493
aF6.20756819583039
aF7.457789425930969
aF5.715185117544024
aF8.265406347625685
aF18.322802039067028
aF9.87302326930876
aF8.730418960913084
aF5.580640191077691
aF6.230861421187001
aF7.0810826512934
aF6.138478342894814
aF6.388699573009944
aF14.946095264473115
aF5.50349095619822
aF6.453712186303164
aF5.211107877908944
aF5.761329108019709
aF12.018724799516349
aF7.068946029707149
aF7.426341721289646
aF5.283737412908522
aF6.241133104482287
aF6.191354334601783
aF6.54875002618428
aF7.506145717758045
aF10.35636694783534
aF5.406588178026141
aF5.556809408142726
aF8.907030638212746
aF6.457251868367166
aF8.114647559930745
aF5.264868790090986
aF8.222264481635648
aF4.872485711803165
aF20.329881403165928
aF10.580102633426577
aF6.737498325070192
aF7.494894016646867
aF12.045115246699424
aF6.002510938375053
aF7.352732168474176
aF16.20295339846416
aF7.853174628704437
aF6.603395858841395
aF7.35361708894925
aF9.203838319041097
aF7.254059549188241
aF5.304280779335386
aF6.354502009438875
aF11.611897700950067
aF4.662118931169971
aF5.619514622743736
aF5.569735852863232
aF7.727131544419535
aF26.677352774262545
aF27.62757400436749
aF42.28496969574189
aF33.14236538746263
aF25.59976107916009
aF27.557156770719303
aF18.314552462441497
aF9.064773692694871
aF5.022169384341396
aF17.479565075747814
aF8.536960767465644
aF4.987181997636071
aF6.84457768919674
aF5.801973380799609
aF5.752194610919105
aF7.309590302484139
aF6.159811532619642
aF18.41720722402897
aF11.36742845425033
aF5.124824145928869
aF9.275045375987247
aF6.832441067610489
aF6.382662297735806
aF8.14005798929793
aF10.69027921937959
aF5.047674911049398
aF6.597896141145611
aF5.455291832749936
aF6.212687524326611
aF5.870083215919294
aF9.027478907461045
aF8.677700137584907
aF8.1350958291805
aF6.385317059324734
aF5.735538289452961
aF5.285759519578278
aF5.34315521116514
aF21.80055090251335
aF12.650772132765269
aF7.308167824430711
aF5.258389054579311
aF7.808610284660972
aF5.358831514815392
aF5.816227206396434
aF6.266448436508654
aF7.223844128082419
aF5.374065358228108
aF5.124286588350515
aF4.874507818472921
aF6.631903510035045
aF9.089299201586982
aF9.146694893173844
aF9.004090584763617
aF6.9543118149122165
aF5.611707506519451
aF7.661928736608388
aF6.419324428214168
aF4.769545658356947
aF5.526941349933622
aF4.777162580063305
aF13.734558271520655
aF6.391953963215201
aF11.549349654727848
aF6.799570884915738
aF6.256966576511331
aF6.614362268093828
aF19.36458349802706
aF12.421979189715785
aF7.37220041990804
aF6.122421650044998
aF5.672642880170315
aF7.730038571728073
aF5.0874342633542255
aF7.944829954900342
aF5.902225646517763
aF10.952446876563044
aF5.209842568234308
aF7.560063798318879
aF5.417459489937755
aF5.76768072005143
aF6.917901950153464
aF5.375297641763609
aF5.132693333354837
aF6.882914563448139
aF6.3403102550437325
aF4.897705946652422
aF5.155101638236374
aF8.41249732977667
aF5.262718559941277
aF8.712939790009841
aF12.963161020066764
aF5.220556711767131
aF5.070777941888082
aF12.12817363337308
aF7.57839486355806
aF15.435790555031417
aF8.8860117852455
aF8.843407476833818
aF5.800803168465791
aF8.751024398541631
aF5.2012456287120585
aF4.751466858837375
aF5.7088625504111405
aF5.559083780532092
aF4.809305010661774
aF5.459526240771083
aF5.0097474708964
aF6.867143162457069
aF8.917364392546006
aF4.767585622725164
aF6.8249813142829225
aF5.1752025444257015
aF5.425423774540832
aF8.082819466089859
aF9.940215157650528
aF6.697610849285411
aF5.955006540883915
aF16.605227770847705
aF9.855449001064699
aF5.212844692719955
aF6.663065922817623
aF12.613287152849807
aF6.5635083830566145
aF7.7209040746274695
aF8.17112530473969
aF5.1285209963716625
aF16.078742226331087
aF8.336137918031454
aF4.886359148200427
aF11.943754839685425
aF5.993976069890778
aF7.651371761454357
aF4.808767453083419
aF7.458988683163625
aF10.016384374714107
aF10.066605604832148
aF4.716826835028769
aF5.567048065135168
aF7.324443756697292
aF6.27466498683134
aF5.432060678431299
aF16.382281908390723
aF7.739677600104187
aF10.29707329165467
aF7.154468983288098
aF7.411864674872049
aF5.6620859050162835
aF21.719481596370315
aF12.369702826625144
aF5.427098518313869
aF9.377319748375157
aF72.13471543904961
aF69.3849366692084
aF60.542332360924775
aF50.385379129718785
aF41.54277482143516
aF33.80017051313553
aF23.643217281929537
aF14.393438512182911
aF8.250834203859995
aF6.301055434007139
aF9.551276664078614
aF5.0014978942635935
aF5.451719124375813
aF5.5091148159626755
aF8.859336046032695
aF5.009557276207488
aF7.059778506296425
aF8.717174197860004
aF8.167395427986776
aF6.424791119599831
aF6.082186811192514
aF8.239582502748817
aF6.496978194361873
aF6.154373885954556
aF4.804595116092969
aF4.65481634621392
aF6.005037576313043
aF5.855258806433994
aF8.412654497984477
aF11.062875728064682
aF7.113096958240931
aF7.463318188354606
aF7.520713879941468
aF15.670935109941638
aF9.821156340145535
aF7.171377570302866
aF6.728773261897004
aF8.986168953451852
aF5.343564645092556
aF5.593785875207686
aF5.451181566797459
aF5.30140279691841
aF15.251624026892387
aF12.40901971852145
aF12.159240948643856
aF7.309462178833201
aF5.45968340897889
aF5.817079100561386
aF4.767300330695434
aF4.924696022280841
aF6.974917252369778
aF5.732312943975558
aF5.582534174096509
aF12.439929865584418
aF8.597325557228032
aF7.754721248827991
aF5.004942478986777
aF7.255163709072804
aF5.512559400685859
aF5.162780630809721
aF5.220176322396583
aF5.670397552508803
aF19.727793243891938
aF9.570840012685949
aF5.721061242860742
aF5.571282472981693
aF9.828678164507437
aF5.578899394688051
aF7.136295086253085
aF5.986516316388588
aF5.243912007987092
aF6.094133238093491
aF5.551528929689084
aF7.001750159786752
aF9.951971389862592
aF5.402192620047572
aF6.65241385014815
aF5.40980954175393
aF5.760030771867605
aF6.010252001982735
aF9.4604732320513
aF11.410694462141691
aF6.460915692332492
aF5.81831138392954
aF6.5685326140373945
aF10.118753844104504
aF13.868975074168702
aF5.226370765882166
aF5.076591996003117
aF11.126813226033846
aF7.977034456198453
aF19.13443014762379
aF11.0846513778597
aF5.742047069525142
aF6.292268299635907
aF10.74966399115874
aF5.507059682822728
aF9.057280912889837
aF11.41467660444323
aF8.472072296073748
aF5.529467987704265
aF11.386863679206726
aF6.144259370870714
aF6.894480600978568
aF7.051876292563975
aF14.602097522572876
aF5.852318752818974
aF7.809714444378187
aF7.459935674502049
aF7.4101569046215445
aF5.360378134770144
aF5.217773826359917
aF6.867995056454674
aF14.025390747938218
aF6.175611978171219
aF11.6330076696795
aF5.790403361352219
aF7.947799052908522
aF7.298020283036749
aF5.855415974645439
aF5.812811666233756
aF5.463032896357618
aF5.820428587940114
aF5.070649818069796
aF11.62087104809325
aF6.878266739749961
aF8.13566243131936
aF4.885883661485423
aF7.036104891572904
aF5.386326121715683
aF5.243721813305456
aF8.393943043378385
aF7.05133873498562
aF4.80155996513713
aF5.45178119524644
aF5.509176886833302
aF4.859398116961529
aF5.016793808546936
aF4.867015038667887
aF6.024410730238742
aF9.574631960305851
aF20.732027651731187
aF15.889423343389353
aF7.346819035101362
aF5.5042147267158725
aF5.254435956838279
aF6.811831648403313
aF4.762052878551913
aF4.612274108672864
aF10.56966980017387
aF7.327065491808753
aF5.5844611834218085
aF17.134682413372502
aF8.484903643617145
aF5.735124873775931
aF11.185346103815391
aF5.042741795492475
aF14.000137486949825
aF7.450358717163908
aF4.6005799473241495
aF5.850801177424728
aF5.408196869018866
aF11.058418099055416
aF6.515813790709217
aF8.87320948226261
aF9.230605173845106
aF8.28800086544652
aF5.038222095612582
aF5.788443325720436
aF6.645839017295657
aF6.996060247409332
aF6.653455939002015
aF7.503677169108414
aF4.7538983992672
aF6.111294090835145
aF4.661515320975013
aF11.311736550997011
aF5.661957781197998
aF16.019353472634975
aF8.569574702862155
aF6.5269703944795765
aF10.384366086011141
aF13.541761777552892
aF6.491983007774252
aF4.949378699384397
aF6.206774390953797
aF9.456995621025271
aF6.3143913126586995
aF5.464612542789837
aF5.12200823438252
aF6.272229464484553
aF5.722450694611325
aF5.572671924732276
aF6.330067616308952
aF4.980288846447365
aF5.937684538021131
aF8.895080229565792
aF4.952475921210862
aF6.902697151301254
aF6.452918381426571
aF9.110314072975598
aF10.360535303076176
aF5.517930994734343
aF5.368152224855294
aF5.525547916440701
aF6.075769146551465
aF10.233164838078665
aF5.38338606826801
aF11.23360729830165
aF15.083828528364393
aF7.14122422006767
aF6.198619911669084
aF8.256015603226842
aF15.10623683324593
aF6.256458063493483
aF10.106679293556226
aF8.456900523699005
aF7.11429621530624
aF14.964517445310776
aF6.8219131370169634
aF14.379308828494686
aF6.029530058734963
aF13.68692575021123
aF6.844321441898501
aF6.501717133491184
aF6.751938363606314
aF5.002159593750548
aF8.752380823814747
aF12.502602053878945
aF7.352823284072656
aF6.603044514202338
aF6.453265744323289
aF5.010661435931979
aF7.8608826660092745
aF10.818278357553936
aF9.375674049162626
aF6.433069740793144
aF6.590465432378551
aF7.147861123958137
aF14.405256815440225
aF4.655478045700875
aF5.41287373727755
aF4.870269428873144
aF8.427665120409074
aF5.577886350569315
aF9.63528204209797
aF6.185503272266942
aF6.742898963846528
aF11.993120193888899
aF9.450515885513596
aF5.500737115689844
aF13.650958345690015
aF7.101179575904098
aF6.951400806025049
aF6.108796497625008
aF5.066192189227877
aF5.116413419345918
aF5.266634649462503
aF7.124030341023172
aF11.374251571080094
aF6.5244728012694395
aF6.77469403138457
aF4.7249152615331695
aF5.8823109531040245
aF7.139706644673424
aF5.497102336285025
aF5.1544980278777075
aF7.004719257969555
aF7.854940488075954
aF5.212336179702106
aF8.162557409777946
aF5.812778639930912
aF7.8629998700198485
aF5.62039556164018
aF9.370616791704379
aF7.4280124833203445
aF4.978233713474765
aF10.335629404984502
aF4.993025096649944
aF5.850420788225165
aF25.90781647952099
aF27.058037709623022
aF18.90825893986039
aF12.258480170075927
aF5.515875861761742
aF15.166097091740085
aF6.2163183219890925
aF8.27371401354685
aF8.831109705126437
aF6.381330935280857
aF6.03872662687354
aF6.2889478569886705
aF7.54634354855807
aF7.796564778673201
aF5.253960470297898
aF7.0041817003912
aF5.954402930525248
aF7.004624160628737
aF9.154845390716218
aF6.005066620880825
aF7.055287850984314
aF6.112683542585728
aF8.662904772667389
aF9.32030046424552
aF6.470521694405761
aF13.027917385898036
aF6.478138616112119
aF6.428359846231615
aF13.478581076247792
aF8.935976767901593
aF4.9861979980778415
aF4.843593689667614
aF22.100989381004183
aF27.551210611043643
aF17.394257379837654
aF8.851653071549663
aF4.901874301725911
aF6.952095531814848
aF6.302316761943075
aF6.952537992052385
aF7.809933683627605
aF9.760154913717997
aF4.710376143910253
aF4.660597374029749
aF5.810818604131782
aF7.46103983422654
aF8.11843552580467
aF5.268656755964912
aF12.818877985973813
aF4.7690992162097245
aF5.326494907789311
aF10.576716137831681
aF9.53411182943455
aF7.084333059588971
aF12.341728751100163
aF9.79912444272486
aF5.756520134371385
aF7.406741364466143
aF6.656962594595825
aF5.414358286201605
aF5.971753977781191
aF7.529149669346225
aF5.0793708995006455
aF5.336766591084597
aF9.086987821148796
aF6.844383512769127
aF5.901779204370541
aF5.052000434501679
aF5.102221664619719
aF9.652442894672276
aF8.70983858627369
aF5.4600598164397525
aF5.910281046551972
aF5.360502276678744
aF5.517897968264151
aF4.868119198392378
aF6.618340428485681
aF6.0685616586124524
aF6.825957350189128
aF5.276178580330452
aF8.233574271875113
aF10.290969963432872
aF4.848365655099769
aF5.805761346673535
aF5.055982576803217
aF6.113378268375527
aF4.863599498512485
aF8.420995190048416
aF6.171216420199926
aF6.321437650316511
aF8.171658880408359
aF9.429054571977758
aF5.879275802148186
aF8.329497032231302
aF7.27971826236535
aF6.137113953969674
aF6.28733518408626
aF5.544730875684763
aF5.70212656727017
aF11.852347797299444
aF16.309743488822278
aF8.559964719053824
aF6.317360410674155
aF5.267581640808203
aF16.02497733223936
aF6.4751985624970985
aF4.832594254108699
aF6.182815484207822
aF19.540211175601144
aF11.990432405829779
aF9.147828097458842
aF11.398049327544868
aF5.548270557748765
aF5.305666249339993
aF7.15588747943184
aF8.606108709529508
aF7.1563299396693765
aF25.906551169515296
aF16.65677239976867
aF8.006993630013312
aF5.457214860169188
aF8.707436090240662
aF7.157657320381986
aF6.707878550507303
aF7.358099780616612
aF6.615495472215116
aF5.465716702350619
aF6.223112393927295
aF8.173333624017687
aF7.43072931561619
aF7.88095054572841
aF8.138346237312362
aF5.288567467472603
aF6.145963159047824
aF5.596184389174596
aF7.453580080735264
aF8.01097577231485
aF9.561197002411063
aF15.11859269391789
aF8.668813924130518
aF6.02620961575667
aF5.583605307350808
aF6.741000998921663
aF5.791222229054256
aF5.0486179206527595
aF10.29883915069513
aF6.656234842335834
aF6.113630533931428
aF5.071026225534297
aF7.121247455623234
aF12.371468685665604
aF13.028864377243735
aF9.179085607418529
aF5.536481299059233
aF6.786702529159811
aF7.044098220743763
aF6.1943194508749
aF9.351715142416651
aF5.609110834058811
aF28.459332063845068
aF29.009553293955832
aF19.359774524215027
aF15.517170215858641
aF7.367391446096008
aF13.524787137594103
aF5.075008367835835
aF5.532404059416876
aF8.382625289494172
aF6.950221230261334
aF15.700442460522964
aF8.65066369078437
aF5.500884921045831
aF4.951106151307329
aF7.908501843033889
aF9.258723073294618
aF5.5161187650215595
aF5.2663399952823795
aF7.4237356870089855
aF10.581131378735535
aF6.93852707046247
aF5.488748300723358
aF5.1461439924501065
aF18.303539684176087
aF13.053760914437191
aF5.203982144698443
aF10.954203374958922
aF9.50442460521981
aF5.854645835480824
aF6.412041527207521
aF9.062262757471728
aF16.919658449202984
aF10.469879679465123
aF9.027275371194264
aF16.177496601459495
aF7.234892293186931
aF7.292287984916413
aF6.642509215179871
aF11.399904906910422
aF5.357300598638517
aF7.307521828902566
aF4.957743059165637
aF8.307964289430004
aF5.958185519693075
aF5.808406749956646
aF9.858627980221172
aF6.008849210483902
aF6.45907044074761
aF6.416466132477069
aF6.166687362740618
aF5.816908593004143
aF5.574304284733444
aF5.8316999764629145
aF4.6819212067262015
aF6.239316898455968
aF8.389538128720005
aF5.14693382044868
aF7.404329512178606
aF5.554550742441734
aF5.611946434171159
aF5.162167664434605
aF4.9195633561639625
aF9.469784586428545
aF5.227180278156993
aF5.17740150842053
aF9.234797200150865
aF7.485018430414016
aF6.0424141221431
aF6.099809813872525
aF6.557205505602042
aF7.807426735865874
aF4.657647966128707
aF17.715043657861088
aF9.165264888122692
aF11.622660579852663
aF6.672881810115086
aF14.930277501846376
aF7.087673193574005
aF5.545068885303067
aF6.902464577032788
aF10.752685807297212
aF5.9029070375596575
aF6.253128267823286
aF5.610523959552552
aF13.960745189817999
aF5.418140881545469
aF4.868362111808892
aF5.02575780353834
aF5.175979033801923
aF6.133374725531553
aF4.7835959557947945
aF9.833817186059491
aF6.18403841632221
aF14.741434108044132
aF4.584480876839507
aF6.8418765685560174
aF6.592097798808709
aF9.349493490524765
aF13.506889182239547
aF4.957110412499787
aF7.407331642750023
aF6.957552873002896
aF5.614948564722681
aF5.6651697949751
aF6.92256548669252
aF6.279961178411668
aF11.43735687012554
aF5.287578100383598
aF6.637799330634834
aF6.395195022353619
aF5.1525907140733125
aF58.40998640574344
aF48.9602076360045
aF39.11042886626592
aF41.46782455798234
aF34.52522024970722
aF29.475441479964275
aF22.332837171689334
aF14.790232863414758
aF6.247628555141091
aF7.505024246858511
aF13.655245477105382
aF6.905466707363985
aF6.25568793761704
aF6.405909167869368
aF5.1561303981229685
aF10.013526089837114
aF5.763747320093444
aF6.713968550345044
aF11.864189780592824
aF5.221585472317429
aF5.771806702569393
aF5.629202394288086
aF8.17942362453823
aF11.736819316253559
aF7.487040546509888
aF6.744436238229127
aF9.501831929945183
aF5.0520531602016945
aF7.209448851918296
aF5.359670082172443
aF6.009891312424315
aF7.660112542675279
aF11.417508234390425
aF11.067729464643207
aF6.3179506948999915
aF5.2681719251534105
aF5.618393155405556
aF9.075788847120975
aF9.433184538839214
aF12.183405769089177
aF5.640801460813691
aF7.591022691064381
aF9.348418382781347
aF7.698639613035311
aF6.556035304754914
aF7.106256535006878
aF7.256477765259206
aF5.60669899551317
aF6.264094687231136
aF5.114315917484646
aF4.971711609203339
aF10.129107300917212
aF5.279328531174087
aF6.336724222891689
aF16.394119914601106
aF6.9515156063282575
aF9.508911298044495
aF5.75913252830037
aF5.509353758553061
aF7.0595749888041155
aF5.509796219057989
aF25.960017449291854
aF16.610238679552822
aF8.560459909812607
aF5.217855601534211
aF5.475251293252541
aF5.232646984971325
aF17.58286821521233
aF13.14026390693516
aF25.8904851371758
aF38.24788082888335
aF39.09810205913482
aF33.855497750858376
aF41.312893442570385
aF31.15594021136576
aF22.013335903092866
aF11.856382671888241
aF7.2137783636112545
aF9.071174055328356
aF7.428569747048641
aF8.078790977300287
aF8.436186669018753
aF7.186407899272126
aF5.243803590992684
aF6.494024821243784
aF5.651420512963341
aF6.108816204681716
aF17.45903743492363
aF9.709258665182915
aF5.059479895439381
aF6.809701125690026
aF5.959922355943036
aF11.517318047656772
aF7.274713739379422
aF5.432109431099889
aF7.382330661350352
aF6.539726353069909
aF5.389947583323192
aF5.047343275042294
aF6.797564505292939
aF5.65496019701277
aF8.405181427262505
aF13.655402657509967
aF65.80562388771477
aF57.15584511797488
aF48.51324080970153
aF38.356287578496904
aF31.813683270221645
aF21.65673003901702
aF12.006951269278034
aF6.857172499534954
aF7.707393729786418
aF5.457614960040701
aF10.215010651755165
aF5.66523188201154
aF9.515453112260275
aF7.865674342514012
aF9.423070034231387
aF4.973291264487671
aF6.5235124947384975
aF15.280908186449324
aF13.138303878170063
aF5.995699569895351
aF7.05309526161318
aF7.710490953331373
aF4.760712183586293
aF6.01810787530394
aF8.175503567020769
aF7.232899258740417
aF5.683120488994064
aF5.440516180713075
aF5.890737410964903
aF5.848133102683732
aF4.998354332936742
aF4.955750024655572
aF5.813145716373583
aF4.663366946626866
aF6.020762638344422
aF4.870983868597705
aF15.328379560306985
aF6.6786007905670886
aF8.335996482284372
aF7.293392174004111
aF8.35078786572194
aF8.201009095974314
aF6.65123032622796
aF13.708626017940333
aF9.158847248196707
aF5.9162429399184475
aF5.266464170171275
aF10.516685400418737
aF7.366906630673839
aF6.12430232239376
aF4.98169801411359
aF5.439093705831965
aF5.08931493608452
aF9.14671062779962
aF6.796931858053995
aF6.854327549772734
aF7.40454878002447
aF8.054770010276115
aF7.212165701995673
aF6.962386932248137
aF6.219782623967603
aF6.870003854219249
aF9.327399545935805
aF7.577620776189633
aF9.635016467906553
aF9.092412159625837
aF7.549807851346031
aF5.907203543066316
aF12.957424773312141
aF7.307646003569516
aF6.257867233822708
aF5.408088464075718
aF4.9583096943283635
aF6.015705386046193
aF5.165926616299203
aF5.016147846551576
aF7.573543538268041
aF18.23093922997714
aF8.681160460238061
aF12.531381690486796
aF5.78877738221172
aF4.946173073931277
aF6.796394304181831
aF7.753789995899751
aF15.811185687611214
aF6.2614069178721365
aF6.418802609590784
aF11.969023839837973
aF4.819245070096713
aF6.3766407618140875
aF7.634036453531735
aF7.28425768378429
aF5.741653375504484
aF6.29187460575622
aF8.44927029747305
aF8.906665989191424
aF7.156887219445252
aF8.70710844969608
aF5.964504141417365
aF5.021899833137013
aF9.679295524851568
aF6.936691216572854
aF6.094086908292411
aF8.951482600008603
aF4.701703830264705
aF7.0519250605148045
aF5.609320752234908
aF5.759541982487008
aF5.409763212739563
aF4.8599844429923
aF8.517380134707764
aF4.567601364963593
aF5.624997056681423
aF5.575218286933705
aF12.732613978645986
aF7.582835208902907
aF5.4402309006236464
aF5.097626592342749
aF11.555022284055667
aF9.205243514310041
aF8.955464744562505
aF5.012860436284882
aF6.17025612800262
aF10.727651819717266
aF4.8778730499748235
aF7.928094280224286
aF7.578315510476841
aF8.935711202194398
aF10.385932432445315
aF17.743328124157415
aF9.493549354417155
aF5.450945046139623
aF5.5083407378583615
aF11.065736429572098
aF4.823132121296567
aF5.17335335154894
aF8.930749043324795
aF5.380970273608909
aF5.631191503906848
aF7.781412734211699
aF6.538808425969364
aF8.696204117739398
aF6.353599809493062
aF5.603821039787363
aF5.454042270083846
aF5.311437961845513
aF6.461659192146726
aF7.211880422446484
aF5.362101652736783
aF12.019497344523188
aF5.376893036261208
aF5.63428872802433
aF5.3916844197856335
aF7.049080111553849
aF9.499301341859791
aF6.356697033610544
aF5.20691826390339
aF5.157139494200237
aF7.114535185969544
aF6.164756416263117
aF5.422152108022601
aF5.572373338320176
aF5.529769030082207
aF4.979990260377235
aF6.237385952143995
aF6.087607182440479
aF8.045002874209786
aF14.70239856599619
aF6.052619796261752
aF8.710015488033605
aF9.860236718334818
aF6.817632410085935
aF9.767853640393696
aF7.625249332148087
aF5.075470562435839
aF11.832866254222608
aF6.083087484498719
aF9.040483176271664
aF5.090704406554323
aF5.748100098318901
aF6.20549579008275
aF7.455717020384327
aF7.713112712147449
aF9.06333394244939
aF5.420729634198324
aF7.078125325966539
aF9.435521017737301
aF13.29291670951352
aF5.350312401246811
aF12.000533631568032
aF4.750754861838686
aF5.000976092136625
aF9.851197322451299
aF6.601418552736504
aF21.151639783086466
aF12.009035474815391
aF8.459256705099506
aF5.509477935385803
aF7.866873627156565
aF36.42426931902264
aF26.26731608781847
aF17.42471177954849
aF9.174933009815504
aF7.932328701573169
aF8.782549931873291
aF7.3399456236302285
aF7.9901668539296224
aF13.547562545712026
aF6.704958237449318
aF5.155179467740709
aF5.012575159502376
aF4.862796389798859
aF5.320192081562709
aF6.470413311863922
aF8.72780900363432
aF4.578030233916252
aF7.0354259256873775
aF5.085647155977313
aF5.643042847741526
aF28.89326407812314
aF20.250659769853883
aF11.4080554615839
aF10.158276691876381
aF6.108497922158676
aF4.758719152450794
aF11.816114844238655
aF6.166336074515129
aF7.323731766281526
aF18.073952996617663
aF10.424174226886862
aF10.874395457185528
aF7.731791148936281
aF6.982012379230582
aF8.639408070998797
aF4.9968037627477315
aF17.354199454554873
aF13.01159514630126
aF8.861816376583192
aF13.31203760689641
aF19.962258837217632
aF16.91965452896875
aF7.769875759232491
aF7.227271450992703
aF5.577492681283729
aF5.53488837304576
aF6.592284064811793
aF9.049679756582918
aF7.607075448339856
aF6.557296678633065
aF7.507517908933551
aF6.057739139225305
aF5.715134830986244
aF7.365356061289276
aF6.422751753048033
aF9.18014744482025
aF6.737543136573549
aF7.7877643668743985
aF6.945160058633519
aF4.7953812889227265
aF6.1527769806898505
aF4.602998210981241
aF5.753219441282454
aF11.703440671601129
aF5.353661901875057
aF5.411057593637452
aF5.068453285398391
aF6.425848977165515
aF8.576070207470366
aF11.133465899241855
aF6.790861590988243
aF6.948257282751001
aF4.898478513040573
aF6.455874204808424
aF7.713269896575184
aF5.863491126865483
aF5.620886818626786
aF7.071108048929091
aF14.528503740718406
aF6.685899432452061
aF7.843295124218457
aF7.393516354513849
aF6.6509120462733335
aF9.301133276580003
aF5.651354506863754
aF6.901575737165331
aF6.851796967462178
aF21.10201819781105
aF12.252239428075882
aF5.302460658347627
aF5.152681888644111
aF8.910077580419966
aF5.060298810702989
aF5.117694502465383
aF5.367915732763322
aF8.118136963070356
aF6.168358193360291
aF6.618579423658957
aF6.96880065395726
aF43.926196345853896
aF33.769243114649726
aF23.612289883445555
aF14.26251111370857
aF6.819906805443679
aF5.27012803573507
aF4.820349266030462
aF6.877744957800132
aF5.335140649556706
aF5.685361879855009
aF6.44275757161995
aF6.0001532633805255
aF5.250374493674826
aF10.707770185456866
aF7.957991415743891
aF5.815387107498282
aF6.365608337797312
aF9.223004029569893
aF6.873225259858373
aF6.430620951618948
aF5.988016643379524
aF6.745412335144465
aF6.202808026904677
aF15.753029257236449
aF6.710424948965738
aF4.9606461792564005
aF5.3180418710198865
aF5.16826310131637
aF5.62565879308022
aF5.283054484841159
aF5.9404501766057365
aF5.2978458683655845
aF5.455241560128343
aF8.80546279043756
aF5.655684020723129
aF6.605905251023614
aF5.656126481317187
aF5.806347711614762
aF7.556568941918158
aF7.81396463368128
aF5.664185863970488
aF6.921581555737248
aF6.47180278603264
aF6.329198477794307
aF6.079419708090427
aF6.436815399853913
aF5.994211091614488
aF6.951606783380157
aF5.90900247513855
aF6.2592237054368525
aF5.516619397196337
aF5.266840627492456
aF6.724236319259944
aF7.581632011025249
aF4.839027702777457
aF6.789248933081581
aF6.646644624843248
aF5.104040316599821
aF5.1542615468970325
aF6.911657238665612
aF7.861878468966097
aF5.012099699252758
aF6.369495391019882
aF10.826891082798284
aF15.584286774577777
aF10.534508004856434
aF9.284729235148916
aF8.342124926907672
aF18.399520618706447
aF16.3569163104612
aF8.014312002193037
aF5.664533232481517
aF5.721928924243912
aF7.172150154546216
aF7.0223713848427
aF5.772592615135181
aF7.0299883069019415
aF4.8873839986563326
aF5.54477969042091
aF11.202175382203677
aF4.752396612477241
aF6.409792304245457
aF6.060013534541213
aF6.71740922630579
aF7.067630456604093
aF4.717851686892573
aF6.76807291719706
aF7.025468608960182
aF5.8756898392530275
aF7.833085531022334
aF5.983306761312633
aF4.840702453070662
aF5.59092368337042
aF5.048319375130632
aF5.705715066895209
aF4.95593629718951
aF7.006157527493997
aF8.256378757795574
aF7.413774449554694
aF6.063995679846812
aF15.721391371644131
aF7.671612601911875
aF6.029008293668085
aF15.58640398546504
aF8.443799677201241
aF7.194020907493723
aF9.851416599265576
aF5.708812291012691
aF6.159033521311358
aF6.316429213074116
aF8.866650443380422
aF12.224046135154822
aF6.1742673654298414
aF7.13166305719551
aF5.089058748950265
aF4.739279979246021
aF15.096675671045887
aF6.95407136277845
aF5.411467054535024
aF5.86168828483369
aF5.411909515129082
aF4.962130745424474
aF5.812351975724596
aF5.362573206019988
aF6.019968897784565
aF6.677364589549143
aF7.234760281313356
aF8.984981511616752
aF7.742377203374417
aF10.099772895145179
aF5.05716858688902
aF5.414564278652506
aF5.364785508949353
aF9.322181200725936
aF5.272402431008231
aF14.229798122803004
aF6.580019353072203
aF5.537415044830595
aF5.387636275127079
aF5.145031966888382
aF7.895253197195416
aF5.752648888949807
aF12.710044580737303
aF9.660265811023237
aF5.310487041304441
aF8.060708271611475
aF5.618103963364774
aF5.575499655126805
aF6.332895346891746
aF12.183116577210058
aF14.333337807514908
aF6.283559037782652
aF5.540954729542136
aF16.698350421344912
aF8.355746113076748
aF7.313141804835141
aF5.170537496589532
aF5.220758726886743
aF12.17815441867424
aF4.728375648944166
aF6.485771340712745
aF5.835992571007409
aF4.793388262765802
aF12.350783954555482
aF5.908179646294229
aF7.858400876598353
aF14.708622106920302
aF8.258843337193866
aF5.009064567479072
aF10.359285797795565
aF11.909507028098233
aF10.659728258390714
aF5.609949488669372
aF7.467345180438315
aF5.324740872192706
aF6.574962102494283
aF5.732357794253403
aF5.2897534860139785
aF14.44714917780766
aF6.304544869539313
aF16.55476609987454
aF8.504987330143194
aF5.755208560431129
aF6.312604252194433
aF7.762825482497647
aF7.813046712795767
aF10.463267943103347
aF9.913489173399284
aF11.863710403704317
aF7.521106095449795
aF5.871327325741731
aF8.728723017513403
aF6.178944247802065
aF7.736339939569007
aF5.693735631322852
aF6.143956861622428
aF5.501352553381366
aF31.15157378377262
aF46.008969475587946
aF39.159190705860965
aF30.416586397590436
aF20.259633166386266
aF11.717028858116464
aF5.167250088390574
aF7.0246457801586075
aF5.382041471913908
aF8.039437163684852
aF5.0896583939720585
aF5.747054085735726
aF5.004449777494301
aF12.754671007820434
aF4.912066699553179
aF4.6622879298502085
aF5.2196836216135125
aF8.369904851922911
aF5.327300543673118
aF5.277521773970875
aF7.534917465740364
aF5.185138696029753
aF6.042534387794149
aF6.89275561809518
aF7.650151309859211
aF7.607547001620333
aF7.157768231916634
aF6.4079894622118445
aF23.058210692570356
aF13.715606384297644
aF10.065827614582304
aF5.6160488448640535
aF6.77344453662954
aF40.13084022851217
aF38.98823592026929
aF29.845631611997305
aF21.803027303729323
aF12.153248533992155
aF6.710644225733631
aF5.560865456027386
aF6.611086686329145
aF5.1613079166218085
aF5.618703608384749
aF6.476099300149144
aF5.926320530445082
aF9.583716222219664
aF5.4411119139658695
aF6.891333144269083
aF5.341554374561383
aF6.598950066327234
aF5.656345758085081
aF6.006566988384293
aF28.256788218763177
aF18.707009449026373
aF12.157230679300483
aF5.714626371038321
aF6.664847601339716
aF5.415068831633107
aF7.565290061938867
aF11.422685753714177
aF7.9729069839995645
aF6.830302675756684
aF11.280523906070812
aF5.837919597812288
aF5.29531528957159
aF5.952710981335258
aF6.1029322116337426
aF6.153153441931863
aF5.710549133691529
aF7.76794482546029
aF5.525340517213408
aF25.175561747582833
aF18.632957439320307
aF8.476004208116137
aF6.333399899869619
aF4.890795591625647
aF9.048191283402048
aF5.19841251368598
aF5.1558082054471015
aF6.313203897212588
aF5.070599588969344
aF7.4279952807391965
aF5.785390972494497
aF9.642786664269806
aF8.10018235602547
aF5.250403586313041
aF7.400624816618802
aF8.250846046919833
aF13.308241738699508
aF4.858462968966705
aF11.915858660753656
aF10.666079891047048
aF6.81630112133098
aF33.46652235172587
aF25.216743581993796
aF16.966964812261722
aF7.724360503989374
aF7.474581734286403
aF9.124802964590344
aF5.775024194876096
aF5.025245425171306
aF16.575466655511264
aF7.82568788577737
aF13.67590911609659
aF7.633304807835884
aF8.08352603813546
aF6.840921729892216
aF4.998317421646789
aF6.455713113413367
aF8.413108805181764
aF8.263330035479157
aF5.5135512657670915
aF20.663772496120146
aF13.921168187856892
aF6.171389418126637
aF5.2216106484211195
aF5.079006340181877
aF5.636402031945181
aF6.7866232622473035
aF6.444018954007333
aF7.494240184309092
aF14.544461414632678
aF9.194682644911154
aF5.252078336658087
aF13.602299566986403
aF10.552520797273246
aF6.309916489019088
aF5.560137719314298
aF4.910358949609872
aF6.36775464137645
aF7.025150333140118
aF5.782546024896874
aF6.439941716660542
aF5.990162946956843
aF6.547558638720147
aF5.904954330479086
aF6.355175560778662
aF16.10539679111207
aF13.662792482864461
aF6.820188174600844
aF5.070409404892416
aF5.020630635190173
aF5.778026326954205
aF7.735422018722602
aF6.29281771047863
aF5.450213402236841
aF4.900434632532779
aF5.250655862831991
aF8.108051554603662
aF5.8582727848934155
aF5.015668476651626
aF5.5730641684149305
aF7.723285398720691
aF7.47350662901772
aF6.223727859311111
aF5.17394908960523
aF8.224170319914265
aF5.374391550201835
aF5.931787241965139
aF4.982008472259622
aF9.239404164036387
aF8.689625394332325
aF6.847021086086897
aF7.797242316388292
aF5.154638008139955
aF8.012033699911626
aF4.7622549301977415
aF5.8124761604995
aF5.762697390797257
aF5.412918621093922
aF10.463139851410233
aF33.82053554325648
aF23.663582312052313
aF16.313803542323512
aF12.371199234070446
aF6.328594925809739
aF8.278816156114772
aF5.236211847864979
aF5.3864330781634635
aF10.943828769944957
aF11.101224461706806
aF6.251445691987101
aF10.20166692229941
aF9.551888152594984
aF8.709283844353195
aF16.2595050746786
aF10.416900766418621
aF4.867121996696369
aF12.617343227022502
aF4.96756445729261
aF7.824960149064282
aF5.382355840816672
aF5.739751532579248
aF10.297147224357104
aF5.3545429161003995
aF6.211938607864795
aF5.662159838160733
aF5.012381068456307
aF6.562602298759884
aF5.019997990515549
aF5.670219220815852
aF4.820440451110699
aF6.47066168141464
aF5.928057373173942
aF9.178278603483705
aF6.928499833773458
aF5.778721064067213
aF7.236116755833791
aF11.786337986148283
aF5.743733677887576
aF6.401129369651244
aF6.551350599949728
aF6.401571830247121
aF5.651793060542332
aF5.1020142908382695
aF6.152235521140028
aF5.302456751434875
aF5.052677981731904
aF5.402899212031116
aF9.260294903806425
aF7.510516134097998
aF7.460737364395754
aF8.418133056160514
aF5.668354286448448
aF6.325749978212116
aF5.3759712085065985
aF6.233366900270994
aF5.690762592030296
aF9.94815828380706
aF5.298379514088083
aF5.955775205851751
aF10.013170897627788
aF6.963392127914631
aF6.313613358210205
aF6.263834588507962
aF5.014055818801353
aF15.864277049138764
aF11.821672740885333
aF5.671893971160898
aF5.529289662921656
aF7.4795108932266885
aF5.836906584981989
aF8.887127815291024
aF8.244523507049962
aF5.894744737339352
aF6.652140429103383
aF14.302361659429152
aF5.2525828896941675
aF6.909978581461473
aF8.660199811765779
aF6.617595503519624
aF6.267816733816289
aF7.318037964118048
aF5.968259194411075
aF10.718480424726295
aF6.175876116471045
aF5.333271808229256
aF34.48349303863324
aF25.433714268898257
aF19.083935499173094
aF12.034156729445385
aF6.29155242118577
aF5.048948112942526
aF12.699169343268295
aF12.456565035028689
aF8.506786265312257
aF6.557007495603102
aF17.51440318740424
aF8.17179887913153
aF8.429194570893742
aF10.286590262661775
aF6.336811492945344
aF5.287032723239463
aF5.544428415001676
aF5.301824106762069
aF5.0520453370590985
aF6.309441028824949
aF4.759662259117249
aF8.909883489430285
aF5.2601047197149455
aF8.610325950025072
aF7.260547180318099
aF5.017942872071217
aF5.6753385638348846
aF5.232734255594551
aF7.582955485901039
aF11.540351177676712
aF4.897746869413822
aF7.255142561183675
aF5.905363791476702
aF16.95558502181484
aF7.305806252077673
aF8.356027482379432
aF7.413423174137279
aF5.963644404429942
aF6.121040096191791
aF15.271261326523017
aF6.82865701825358
aF7.378878248553519
aF5.329099478844
aF14.079320709173771
aF5.236716400902878
aF4.986937631199908
aF7.537158861507123
aF6.387380091800878
aF6.744775783563455
aF5.994997013858665
aF13.452392705647071
aF5.70978839738018
aF5.067184089139118
aF5.324579780901331
aF5.874801011201271
aF13.13219670298895
aF5.082417933257602
aF7.139813625026363
aF6.490034855321937
aF8.540256085627334
aF7.890477315922908
aF6.847873007680391
aF5.305268699436056
aF5.562664391198268
aF5.3128856214952975
aF8.663106851805424
aF5.020502543553448
aF4.770723773850477
aF5.128119465613054
aF8.878340695924635
aF6.435736387677025
aF8.293132079445058
aF9.450527771210545
aF5.707923462958206
aF5.558144693255599
aF4.608365923550082
aF10.758587153870394
aF5.615982845612962
aF10.06620407592709
aF4.916425306206293
aF11.866646536529515
aF8.516867766815267
aF5.46708899710211
aF7.024484688869052
aF4.981880380622897
aF8.93927607239857
aF4.989497302682139
aF6.546892994449081
aF25.297114224815232
aF16.854509916545794
aF8.904731146814811
aF5.554952377100562
aF10.112348068878418
aF9.462569299173992
aF11.819964990943845
aF5.777360682683138
aF23.234756374507924
aF13.584977604770756
aF6.642373296506776
aF8.599768988275173
aF6.057164680027199
aF7.107385910328958
aF6.357607140624168
aF6.915002832387472
aF4.965224062678317
aF12.922619754468542
aF10.380015446220568
aF8.337411137974414
aF8.587632368273262
aF8.545028060034383
aF5.50242375178459
aF16.952644982124184
aF10.21004067386093
aF11.360261904163053
aF20.71765759595837
aF13.367878826229571
aF6.225274517964863
aF8.57549574827135
aF9.132891440034655
aF6.3902871317859535
aF8.547682823555078
aF5.505078515305286
aF4.555299745599768
aF6.8055209759058926
aF4.65574220619601
aF11.613137897982597
aF16.67053358976227
aF10.327929281500474
aF5.5853249732444965
aF11.14272066502599
aF6.100116356768922
aF8.45033758707541
aF5.60055881736298
aF15.450780047696753
aF9.701001277973774
aF5.451222508256251
aF7.0014437385598285
aF6.151664968854675
aF12.709060660639807
aF7.759281890919738
aF9.416677582687043
aF10.766898812989893
aF8.61712004328001
aF8.267341273576676
aF12.724736965354168
aF7.674958195633735
aF12.532353887412683
aF7.6897495791563415
aF6.647145270913825
aF5.1973665012064885
aF6.7547621929734305
aF6.41215788473346
aF5.662379115028671
aF22.712600345388637
aF13.162821575651833
aF6.920217267390399
aF5.370438497682699
aF7.0278341894500045
aF17.678055419786688
aF12.028276650064072
aF9.885672341817553
aF6.343068033565942
aF4.593289263857514
aF5.350684955621546
aF5.000906185918211
aF4.651127416214877
aF7.101348646521728
aF6.851569876818758
aF11.70179110713434
aF7.452012337416818
aF6.209408029173574
aF5.1596292594676925
aF7.017024951235726
aF5.974420642993209
aF8.53181633476379
aF16.989212026555833
aF11.346607718296582
aF9.196828948586699
aF10.054224640351094
aF8.01162033210494
aF8.06184156240306
aF7.319237254161635
aF5.176632945915117
aF5.3340286376769654
aF6.384249867978724
aF13.341645559765311
aF6.099041251500239
aF4.9564369432573585
aF5.313832635019935
aF32.66405386541737
aF23.621449557145752
aF16.671670787418407
aF10.229066479156245
aF5.386462170899904
aF5.443857862661389
aF9.201253554436335
aF5.751474784721722
aF5.901696015020207
aF8.551917245327786
aF6.802138475619358
aF11.452359705934214
aF6.602580936214508
aF7.952802166517358
aF6.910197858274842
aF9.360419088581693
aF9.917814780344997
aF5.975210472091931
aF10.832606163870878
aF5.4828273941493535
aF4.940223085908656
aF7.290444316215144
aF9.440665546520904
aF6.390886776807747
aF5.948282468567413
aF6.205678160329626
aF6.155899390627383
aF5.113295082384866
aF5.563516312684442
aF5.720912004446291
aF5.771133234744411
aF9.928528926520812
aF8.378750156813112
aF5.828971387101774
aF5.479192617398439
aF5.329413847695832
aF5.18680953945659
aF5.344205231218439
aF5.594426461517287
aF5.551822153278408
aF7.0092178450449865
aF4.959439075335467
aF7.016834767104228
aF18.57423045890755
aF10.824451689177295
aF5.47467291945577
aF5.532068611217255
aF8.189464302988199
aF7.946859994748593
aF6.397081225040893
aF6.454476916802378
aF11.604698147119052
aF5.454919377394617
aF5.9123150691575574
aF5.869710760918679
aF4.727106452675798
aF6.077327682978648
aF5.234723374736859
aF12.084944605059718
aF6.242340296799739
aF11.299735988579414
aF6.6571316803238005
aF5.51452737208092
aF6.964748602384134
aF7.122144294145983
aF5.372365524437555
aF10.829761216218685
aF11.979982446520808
aF30.43737813834923
aF21.287599368613883
aF18.54499506036518
aF13.895216290646204
aF6.552611982380768
aF5.102833212673431
aF6.053054442974826
aF4.703275673267854
aF5.453496903568521
aF6.103718133868824
aF6.653939364168764
aF13.204160594490531
aF6.454381824763914
aF10.711777516540678
aF6.2691732082857925
aF6.92656890004946
aF5.976790130343943
aF7.034185822109066
aF6.484407052405004
aF9.641802744177767
aF6.8991984359290655
aF7.656594127693097
aF5.106815357981759
aF7.257036588287519
aF12.314432280067194
aF8.364653510350763
aF14.11487474066962
aF9.465095970950642
aF7.3153172012407595
aF8.672712893006974
aF7.730108584764821
aF22.280329815115692
aF24.73772550688591
aF15.987946737152015
aF9.545342428889853
aF8.795563659185063
aF6.25295935093709
aF6.010355042697483
aF10.860576273013066
aF19.417971964805474
aF11.768193195075582
aF9.5255888868287
aF8.882984578587639
aF7.840380270345122
aF5.997775962099695
aF5.555171653859361
aF6.812567345625212
aF5.962788575920058
aF6.220184267682271
aF5.870405497978936
aF5.8278011897400575
aF11.47802242005855
aF5.935418111799663
aF5.292813803558602
aF5.550209495320814
aF5.507605187081936
aF17.457826417423348
aF11.808047647700732
aF7.46544333944621
aF5.0228390311986
aF6.980234722966998
aF5.437630414722662
aF9.88785164503679
aF5.545247336782268
aF4.795468567077478
aF6.252864258844056
aF11.40308548916073
aF7.053306719442844
aF5.310702411197781
aF8.660923641507907
aF8.118319333267209
aF6.8685405635606
aF8.225936255326815
aF5.076157485613294
aF21.126378715969622
aF13.276599946239003
aF6.033995637973931
aF5.891391329734688
aF9.841612560046997
aF5.999008251794294
aF5.156403943552505
aF5.3137996353143535
aF5.464020865612838
aF7.721416557382327
aF7.871637787680811
aF5.029033479431746
aF10.279254709748784
aF5.136650401491352
aF5.0868716317891085
aF7.444267323558961
aF7.19448855385599
aF6.05188424561311
aF5.102105475907592
aF5.952326706208623
aF6.409722397971564
aF5.3599436282656825
aF6.01733932002935
aF7.667560550333292
aF14.817781780657242
aF9.26800301093499
aF4.81822424121674
aF6.9684454715225
aF8.22584116328835
aF4.676062393573375
aF6.1262836238765885
aF9.476504854186715
aF5.126726084468828
aF5.084121776229949
aF7.741517468000893
aF6.691738698295012
aF9.44913439006632
aF5.699355620350616
aF6.756751312115739
aF6.406972542412404
aF5.7571937727079785
aF4.914589464466189
aF7.86481069477486
aF11.322206386548714
aF4.979602078286916
aF6.036997770052039
aF6.294393461814252
aF14.751789153606296
aF6.009184845335767
aF4.859406075629522
aF11.216801767413926
aF5.167022997689855
aF5.117244227987612
aF20.167465458340303
aF20.717686688640242
aF11.667907918905257
aF7.718129149188826
aF5.968350379480398
aF5.318571609775972
aF22.675967301600394
aF13.733362993329138
aF10.083584223613798
aF6.240979915361095
aF8.991201145669038
aF9.74859683743307
aF6.705992529183277
aF6.156213759479215
aF6.313609451241064
aF9.66383068155119
aF6.414051911837305
aF6.871447603600245
aF5.221668833892181
aF5.571890064191393
aF12.829285755979072
aF8.57950698626155
aF6.5369026780153945
aF18.087123908138892
aF11.444519599823252
aF8.70191529145086
aF7.0521365215936385
aF8.102357751697127
aF4.7525789818646444
aF5.70997467343841
aF5.060195903566637
aF10.710417133603187
aF5.360638363799808
aF17.91085959373595
aF10.961080823955854
aF4.911302054162661
aF4.961523284280702
aF6.511744514376915
aF4.8619657445196935
aF8.719361436051258
aF4.969582666224596
aF4.926978357812914
aF6.577199587907671
aF5.834595279506175
aF7.284816509603843
aF21.042212200991344
aF12.399607892704807
aF7.357003584365884
aF5.8143992759760295
aF5.8717949675628915
aF6.422016197673656
aF8.072237427768414
aF5.829633119388745
aF7.279854349486413
aF5.437250041100924
aF5.38747127122042
aF19.237692501137644
aF10.995088192845287
aF7.352483884485991
aF4.902705114640412
aF13.252926344637672
aF5.903147574863397
aF10.15336880492032
aF5.81076449657121
aF5.060985726700892
aF5.618381418280478
aF6.468602648386877
aF7.625998339957732
aF9.376219570051035
aF9.733615261633531
aF5.091010953288787
aF6.748406644852366
aF6.898627874968952
aF15.556023566430667
aF6.306244796684041
aF8.856466026765702
aF10.71386171832637
aF5.671257409987447
aF4.72147864012004
aF5.271699870230805
aF5.129095561820577
aF4.779316791944439
aF6.036712483513838
aF6.686933713623148
aF8.044329405191093
aF9.69455063528585
aF4.844771865475195
aF9.502167556995119
aF7.452388787143718
aF6.309784478748043
aF9.867180170283973
aF15.924575861783524
aF8.374797092012159
aF4.932192783649953
aF5.982414013753441
aF5.33980970535049
aF4.990030935474351
aF17.44742662688077
aF11.904822318549122
aF9.655043548700633
aF9.012439240297681
aF7.5626604704375495
aF35.7200561616155
aF34.67027739174955
aF29.220498621947627
aF20.270719852196635
aF14.020941082406353
aF5.871162312643719
aF7.7285580042043875
aF8.285953695783974
aF5.94334938740576
aF4.893570617539808
aF5.250966309122305
aF7.608362000675697
aF7.758583230792283
aF8.515978922368959
aF5.066200152537931
aF8.316421382609406
aF6.466642612755095
aF5.324038304359419
aF8.974259534425073
aF6.624480764578038
aF7.774701994680072
aF5.732097686297493
aF4.682318916431541
aF7.539714607977658
aF4.889935838134988
aF5.34733152971603
aF6.997552759810787
aF5.154948451425298
aF5.812344143003429
aF6.569739834580105
aF6.727135526165512
aF14.784531217635958
aF11.941926909265021
aF4.792148139487836
aF12.449543830964103
aF7.899765061149083
aF5.9571607527650485
aF7.314556444332993
aF4.97195213595478
aF6.02934782752709
aF6.3867435191095865
aF6.944139210689173
aF6.6015349022818555
aF4.751756132427545
aF5.201977362539765
aF4.752198592665081
aF10.009594284176274
aF5.459815514361253
aF5.217211205952481
aF7.367432436039962
aF5.8248281276501075
aF5.975049357766693
aF6.232445049350645
aF7.682666279448313
aF6.140061971058458
aF8.397457662613306
aF6.254853354232182
aF6.6122490458146785
aF5.362470275951637
aF4.712691506079864
aF19.162912735988357
aF21.020308427549026
aF12.877704119255213
aF5.935099810943939
aF7.392495502510428
aF5.2498911941293045
aF5.307286885716167
aF6.057508115824021
aF5.814903807415249
aF6.872299498987559
aF5.129695190600614
aF6.579916420698282
aF7.037312112279324
aF5.387533342422103
aF9.744929033946391
aF7.595150264096446
aF11.152545955632377
aF10.60994164722797
aF10.067337338823563
aF5.22473303048173
aF7.382128722038033
aF7.33952441362635
aF11.889745643678907
aF7.347141335332708
aF4.997362565485673
aF5.854758257060894
aF10.904979487106175
aF6.655200717286789
aF6.005421947415016
aF5.0556431775476085
aF5.213038869133015
aF4.763260099258332
aF12.513481329264323
aF11.66370255939546
aF5.721098251069634
aF7.471319481162936
aF7.721540711278067
aF9.771761941367004
aF5.421983171549073
aF4.7722044016773
aF10.522425631712395
aF6.372646861891553
aF12.730042553386738
aF9.687438245018711
aF7.144833936643408
aF7.095055166762904
aF30.152450858015072
aF25.602672088200052
aF24.15289331833992
aF14.710289010065026
aF5.960510240311123
aF10.017905931839778
aF6.668127162007295
aF7.725522853579605
aF9.175744083677273
aF5.133139775323798
aF5.483361005437473
aF6.333582235543872
aF6.0909779271351
aF7.648373618700134
aF6.398594848837092
aF18.25599054025224
aF18.713386231833283
aF10.063607462077925
aF6.621003153715719
aF9.57122438379156
aF5.021445613976539
aF7.078841305534297
aF6.836236997125525
aF18.99363268853631
aF10.851028380242496
aF8.201249610399827
aF8.651470840512047
aF9.108866532093089
aF10.859087762186391
aF5.416483453853289
aF7.96670468393495
aF5.424100375559647
aF7.281496067120315
aF6.631717297248542
aF6.081938527375314
aF6.939334218950535
aF15.689555448941974
aF7.446951140649617
aF5.197172370801127
aF6.354568062371982
aF6.1119637539632095
aF6.862184984071064
aF5.612406214208022
aF6.662627444311511
aF13.920023135793599
aF5.477418827504152
aF7.734814519059
aF7.092210210656049
aF9.249605902212352
aF6.9070015938341385
aF5.057222823979828
aF10.407444054020743
aF6.257665284199902
aF6.01506097579113
aF6.965282205896074
aF5.715503436033032
aF6.765724666136521
aF11.823120357650623
aF6.373341587848699
aF8.130737279410823
aF5.288132971039886
aF5.445528662625293
aF6.302924354200513
aF7.1531455843069125
aF8.410541275876312
aF5.260762506040919
aF5.71815819762196
aF12.475553889111325
aF5.432949580801505
aF6.79034527236945
aF9.447740963918477
aF9.005136655512615
aF5.355357885684498
aF7.1055791157778
aF5.0558003459264
aF11.606021575949853
aF10.656242806082446
aF5.406464036277612
aF5.563859727863019
aF11.321255419366935
aF5.778651111035288
aF6.236046802616329
aF5.88626803274019
aF13.636489262746181
aF6.286710492971906
aF6.144106184561679
aF6.994327414668078
aF21.451723106045392
aF14.909118797728297
aF11.05934002790309
aF6.3167357195598015
aF6.766956949672021
aF5.424352641279256
aF11.274573871312896
aF5.631969562982704
aF13.789365254451695
aF6.946760946138966
aF11.396982176192978
aF5.7472034063939645
aF5.704599097982282
aF5.9619947895662335
aF11.712216019601328
aF5.062437249816867
aF6.719832941380446
aF9.070054171465017
aF8.027449863067886
aF6.077671093215031
aF6.135066784801893
aF14.985288014791877
aF5.942683706511161
aF9.100079398052912
aF4.550300628237892
aF6.300521858331194
aF5.950743088455056
aF6.308138780037552
aF8.35836001012649
aF5.815755701751186
aF5.765976931870682
aF14.123372623336763
aF9.273593853526108
aF9.130989545115881
aF6.2883852367449435
aF13.945780928221211
aF33.50317661952431
aF24.75339784977041
aF15.910793541486782
aF7.4610147717285145
aF10.51841046327172
aF6.068631693455245
aF5.126027385056659
aF6.8762486151499616
aF6.4336443067441
aF9.391039998288761
aF7.548435689903272
aF5.305831381523603
aF7.456052611611085
aF5.10627384176405
aF5.156495071882091
aF8.313890763423842
aF8.864111993534607
aF4.81433322371231
aF8.16455445378233
aF5.8219501454041165
aF5.372171375529433
aF7.922392605611094
aF13.772613835644734
aF17.622835065707477
aF16.67305629584007
aF7.423277526093443
aF4.873498756249319
aF4.930894447836181
aF12.288290139316814
aF4.94568583101136
aF6.20308152258076
aF5.653302752707532
aF5.603523982827028
aF8.253745212907234
aF5.2111409045392065
aF8.361362134612136
aF8.518757826197543
aF5.968979056353419
aF5.0192002864860115
aF5.976595978059777
aF6.726817208167631
aF4.8770384383133205
aF4.834434129901638
aF6.684655359993485
aF6.8348765901100705
aF5.192272281721671
aF6.449667973291071
aF7.699889203391649
aF5.357284895013436
aF8.707506125083455
aF7.657727355217503
aF13.707948585248232
aF5.258169815489964
aF17.21556550690366
aF7.565786737162853
aF5.323182428783184
aF5.973403658892494
aF7.7307993504546175
aF5.981020580598852
aF6.631241810708161
aF6.8814630408232915
aF18.93885873223553
aF9.896254423954815
aF4.953650115614437
aF6.703871345707739
aF21.454092575611867
aF13.104313805852144
aF8.454535036038578
aF5.804756266195909
aF8.75497749627175
aF7.305198726411618
aF6.055419956548576
aF8.512815648100513
aF8.963036878212733
aF5.420432569851982
aF5.677828261435934
aF12.628049491453567
aF5.078270721682202
aF6.9356664132428705
aF4.985887643390015
aF12.243283334872103
aF5.700679026555008
aF5.15090025668178
aF7.401121486767806
aF9.751342716852378
aF5.501563947032992
aF6.4517851771379355
aF10.002006407205045
aF5.652227637387114
aF7.90244886747314
aF15.85267009747622
aF6.91006578919405
aF6.460287019319367
aF5.91768271091496
aF5.767903941035911
aF7.925299632592214
aF4.9755208627539105
aF8.725742092818109
aF5.075963322989992
aF5.233359014575399
aF6.883580244670156
aF6.14097593626866
aF8.391197166354686
aF5.441418396516383
aF5.391639626635879
aF7.449035318193637
aF5.499256548340782
aF7.856652239894174
aF5.50687347004714
aF6.957094700144808
aF4.907315930293407
aF20.857537160180073
aF21.607758390287927
aF14.057979620516562
aF11.708200850669527
aF6.058422080870514
aF13.715817772346782
aF7.06603900256232
aF6.723434694155003
aF5.580830385759327
aF5.838226077343279
aF13.488447307350725
aF9.03866853753425
aF7.8888897676697525
aF5.639110997821263
aF7.989332227905834
aF7.146727919505793
aF9.096949149596185
aF8.154344841197599
aF5.50456607135493
aF5.354787301475881
aF5.312182993064198
aF6.762404223161866
aF4.819799914777832
aF7.377195606328314
aF6.134591297934094
aF5.584812528060866
aF9.742208219588065
aF7.1924294497439405
aF6.049825141348265
aF5.607220832942403
aF5.664616524529265
aF7.122012216095754
aF5.472233446238533
aF6.422454676343477
aF6.172675906465884
aF7.130071598039649
aF9.987467289585766
aF5.644862981236656
aF5.8950842113517865
aF4.9524799029532005
aF6.4027011330508685
aF7.652922363151447
aF13.110318054659729
aF6.060539284881088
aF16.417934976318065
aF10.868156206517597
aF6.618377436698211
aF9.368598666776961
aF9.118819896899367
aF6.169041127061064
aF8.226436818618822
aF7.776658048744139
aF8.734053740317904
aF12.691449431848014
aF5.748845123536739
aF4.906240815136698
aF4.956462045254739
aF8.906683275316027
aF4.956904505492275
aF6.107125735594309
aF12.057346965626493
aF6.20756819583039
aF7.457789425930969
aF5.715185117544024
aF8.265406347625685
aF18.322802039067028
aF9.87302326930876
aF8.730418960913084
aF5.580640191077691
aF6.230861421187001
aF7.0810826512934
aF6.138478342894814
aF6.388699573009944
aF14.946095264473115
aF5.50349095619822
aF6.453712186303164
aF5.211107877908944
aF5.761329108019709
aF12.018724799516349
aF7.068946029707149
aF7.426341721289646
aF5.283737412908522
aF6.241133104482287
aF6.191354334601783
aF6.54875002618428
aF7.506145717758045
aF10.35636694783534
aF5.406588178026141
aF5.556809408142726
aF8.907030638212746
aF6.457251868367166
aF8.114647559930745
aF5.264868790090986
aF8.222264481635648
aF4.872485711803165
aF20.329881403165928
aF10.580102633426577
aF6.737498325070192
aF7.494894016646867
aF12.045115246699424
aF6.002510938375053
aF7.352732168474176
aF16.20295339846416
aF7.853174628704437
aF6.603395858841395
aF7.35361708894925
aF9.203838319041097
aF7.254059549188241
aF5.304280779335386
aF6.354502009438875
aF11.611897700950067
aF4.662118931169971
aF5.619514622743736
aF5.569735852863232
aF7.727131544419535
aF26.677352774262545
aF27.62757400436749
aF42.28496969574189
aF33.14236538746263
aF25.59976107916009
aF27.557156770719303
aF18.314552462441497
aF9.064773692694871
aF5.022169384341396
aF17.479565075747814
aF8.536960767465644
aF4.987181997636071
aF6.84457768919674
aF5.801973380799609
aF5.752194610919105
aF7.309590302484139
aF6.159811532619642
aF18.41720722402897
aF11.36742845425033
aF5.124824145928869
aF9.275045375987247
aF6.832441067610489
aF6.382662297735806
aF8.14005798929793
aF10.69027921937959
aF5.047674911049398
aF6.597896141145611
aF5.455291832749936
aF6.212687524326611
aF5.870083215919294
aF9.027478907461045
aF8.677700137584907
aF8.1350958291805
aF6.385317059324734
aF5.735538289452961
aF5.285759519578278
aF5.34315521116514
aF21.80055090251335
aF12.650772132765269
aF7.308167824430711
aF5.258389054579311
aF7.808610284660972
aF5.358831514815392
aF5.816227206396434
aF6.266448436508654
aF7.223844128082419
aF5.374065358228108
aF5.124286588350515
aF4.874507818472921
aF6.631903510035045
aF9.089299201586982
aF9.146694893173844
aF9.004090584763617
aF6.9543118149122165
aF5.611707506519451
aF7.661928736608388
aF6.419324428214168
aF4.769545658356947
aF5.526941349933622
aF4.777162580063305
aF13.734558271520655
aF6.391953963215201
aF11.549349654727848
aF6.799570884915738
aF6.256966576511331
aF6.614362268093828
aF19.36458349802706
aF12.421979189715785
aF7.37220041990804
aF6.122421650044998
aF5.672642880170315
aF7.730038571728073
aF5.0874342633542255
aF7.944829954900342
aF5.902225646517763
aF10.952446876563044
aF5.209842568234308
aF7.560063798318879
aF5.417459489937755
aF5.76768072005143
aF6.917901950153464
aF5.375297641763609
aF5.132693333354837
aF6.882914563448139
aF6.3403102550437325
aF4.897705946652422
aF5.155101638236374
aF8.41249732977667
aF5.262718559941277
aF8.712939790009841
aF12.963161020066764
aF5.220556711767131
aF5.070777941888082
aF12.12817363337308
aF7.57839486355806
aF15.435790555031417
aF8.8860117852455
aF8.843407476833818
aF5.800803168465791
aF8.751024398541631
aF5.2012456287120585
aF4.751466858837375
aF5.7088625504111405
aF5.559083780532092
aF4.809305010661774
aF5.459526240771083
aF5.0097474708964
aF6.867143162457069
aF8.917364392546006
aF4.767585622725164
aF6.8249813142829225
aF5.1752025444257015
aF5.425423774540832
aF8.082819466089859
aF9.940215157650528
aF6.697610849285411
aF5.955006540883915
aF16.605227770847705
aF9.855449001064699
aF5.212844692719955
aF6.663065922817623
aF12.613287152849807
aF6.5635083830566145
aF7.7209040746274695
aF8.17112530473969
aF5.1285209963716625
aF16.078742226331087
aF8.336137918031454
aF4.886359148200427
aF11.943754839685425
aF5.993976069890778
aF7.651371761454357
aF4.808767453083419
aF7.458988683163625
aF10.016384374714107
aF10.066605604832148
aF4.716826835028769
aF5.567048065135168
aF7.324443756697292
aF6.27466498683134
aF5.432060678431299
aF16.382281908390723
aF7.739677600104187
aF10.29707329165467
aF7.154468983288098
aF7.411864674872049
aF5.6620859050162835
aF21.719481596370315
aF12.369702826625144
aF5.427098518313869
aF9.377319748375157
aF72.13471543904961
aF69.3849366692084
aF60.542332360924775
aF50.385379129718785
aF41.54277482143516
aF33.80017051313553
aF23.643217281929537
aF14.393438512182911
aF8.250834203859995
aF6.301055434007139
aF9.551276664078614
aF5.0014978942635935
aF5.451719124375813
aF5.5091148159626755
aF8.859336046032695
aF5.009557276207488
aF7.059778506296425
aF8.717174197860004
aF8.167395427986776
aF6.424791119599831
aF6.082186811192514
aF8.239582502748817
aF6.496978194361873
aF6.154373885954556
aF4.804595116092969
aF4.65481634621392
aF6.005037576313043
aF5.855258806433994
aF8.412654497984477
aF11.062875728064682
aF7.113096958240931
aF7.463318188354606
aF7.520713879941468
aF15.670935109941638
aF9.821156340145535
aF7.171377570302866
aF6.728773261897004
aF8.986168953451852
aF5.343564645092556
aF5.593785875207686
aF5.451181566797459
aF5.30140279691841
aF15.251624026892387
aF12.40901971852145
aF12.159240948643856
aF7.309462178833201
aF5.45968340897889
aF5.817079100561386
aF4.767300330695434
aF4.924696022280841
aF6.974917252369778
aF5.732312943975558
aF5.582534174096509
aF12.439929865584418
aF8.597325557228032
aF7.754721248827991
aF5.004942478986777
aF7.255163709072804
aF5.512559400685859
aF5.162780630809721
aF5.220176322396583
aF5.670397552508803
aF19.727793243891938
aF9.570840012685949
aF5.721061242860742
aF5.571282472981693
aF9.828678164507437
aF5.578899394688051
aF7.136295086253085
aF5.986516316388588
aF5.243912007987092
aF6.094133238093491
aF5.551528929689084
aF7.001750159786752
aF9.951971389862592
aF5.402192620047572
aF6.65241385014815
aF5.40980954175393
aF5.760030771867605
aF6.010252001982735
aF9.4604732320513
aF11.410694462141691
aF6.460915692332492
aF5.81831138392954
aF6.5685326140373945
aF10.118753844104504
aF13.868975074168702
aF5.226370765882166
aF5.076591996003117
aF11.126813226033846
aF7.977034456198453
aF19.13443014762379
aF11.0846513778597
aF5.742047069525142
aF6.292268299635907
aF10.74966399115874
aF5.507059682822728
aF9.057280912889837
aF11.41467660444323
aF8.472072296073748
aF5.529467987704265
aF11.386863679206726
aF6.144259370870714
aF6.894480600978568
aF7.051876292563975
aF14.602097522572876
aF5.852318752818974
aF7.809714444378187
aF7.459935674502049
aF7.4101569046215445
aF5.360378134770144
aF5.217773826359917
aF6.867995056454674
aF14.025390747938218
aF6.175611978171219
aF11.6330076696795
aF5.790403361352219
aF7.947799052908522
aF7.298020283036749
aF5.855415974645439
aF5.812811666233756
aF5.463032896357618
aF5.820428587940114
aF5.070649818069796
aF11.62087104809325
aF6.878266739749961
aF8.13566243131936
aF4.885883661485423
aF7.036104891572904
aF5.386326121715683
aF5.243721813305456
aF8.393943043378385
aF7.05133873498562
aF4.80155996513713
aF5.45178119524644
aF5.509176886833302
aF4.859398116961529
aF5.016793808546936
aF4.867015038667887
aF6.024410730238742
aF9.574631960305851
aF20.732027651731187
aF15.889423343389353
aF7.346819035101362
aF5.5042147267158725
aF5.254435956838279
aF6.811831648403313
aF4.762052878551913
aF4.612274108672864
aF10.56966980017387
aF7.327065491808753
aF5.5844611834218085
aF17.134682413372502
aF8.484903643617145
aF5.735124873775931
aF11.185346103815391
aF5.042741795492475
aF14.000137486949825
aF7.450358717163908
aF4.6005799473241495
aF5.850801177424728
aF5.408196869018866
aF11.058418099055416
aF6.515813790709217
aF8.87320948226261
aF9.230605173845106
aF8.28800086544652
aF5.038222095612582
aF5.788443325720436
aF6.645839017295657
aF6.996060247409332
aF6.653455939002015
aF7.503677169108414
aF4.7538983992672
aF6.111294090835145
aF4.661515320975013
aF11.311736550997011
aF5.661957781197998
aF16.019353472634975
aF8.569574702862155
aF6.5269703944795765
aF10.384366086011141
aF13.541761777552892
aF6.491983007774252
aF4.949378699384397
aF6.206774390953797
aF9.456995621025271
aF6.3143913126586995
aF5.464612542789837
aF5.12200823438252
aF6.272229464484553
aF5.722450694611325
aF5.572671924732276
aF6.330067616308952
aF4.980288846447365
aF5.937684538021131
aF8.895080229565792
aF4.952475921210862
aF6.902697151301254
aF6.452918381426571
aF9.110314072975598
aF10.360535303076176
aF5.517930994734343
aF5.368152224855294
aF5.525547916440701
aF6.075769146551465
aF10.233164838078665
aF5.38338606826801
aF11.23360729830165
aF15.083828528364393
aF7.14122422006767
aF6.198619911669084
aF8.256015603226842
aF15.10623683324593
aF6.256458063493483
aF10.106679293556226
aF8.456900523699005
aF7.11429621530624
aF14.964517445310776
aF6.8219131370169634
aF14.379308828494686
aF6.029530058734963
aF13.68692575021123
aF6.844321441898501
aF6.501717133491184
aF6.751938363606314
aF5.002159593750548
aF8.752380823814747
aF12.502602053878945
aF7.352823284072656
aF6.603044514202338
aF6.453265744323289
aF5.010661435931979
aF7.8608826660092745
aF10.818278357553936
aF9.375674049162626
aF6.433069740793144
aF6.590465432378551
aF7.147861123958137
aF14.405256815440225
aF4.655478045700875
aF5.41287373727755
aF4.870269428873144
aF8.427665120409074
aF5.577886350569315
aF9.63528204209797
aF6.185503272266942
aF6.742898963846528
aF11.993120193888899
aF9.450515885513596
aF5.500737115689844
aF13.650958345690015
aF7.101179575904098
aF6.951400806025049
aF6.108796497625008
aF5.066192189227877
aF5.116413419345918
aF5.266634649462503
aF7.124030341023172
aF11.374251571080094
aF6.5244728012694395
aF6.77469403138457
aF4.7249152615331695
aF5.8823109531040245
aF7.139706644673424
aF5.497102336285025
aF5.1544980278777075
aF7.004719257969555
aF7.854940488075954
aF5.212336179702106
aF8.162557409777946
aF5.812778639930912
aF7.8629998700198485
aF5.62039556164018
aF9.370616791704379
aF7.4280124833203445
aF4.978233713474765
aF10.335629404984502
aF4.993025096649944
aF5.850420788225165
aF25.90781647952099
aF27.058037709623022
aF18.90825893986039
aF12.258480170075927
aF5.515875861761742
aF15.166097091740085
aF6.2163183219890925
aF8.27371401354685
aF8.831109705126437
aF6.381330935280857
aF6.03872662687354
aF6.2889478569886705
aF7.54634354855807
aF7.796564778673201
aF5.253960470297898
aF7.0041817003912
aF5.954402930525248
aF7.004624160628737
aF9.154845390716218
aF6.005066620880825
aF7.055287850984314
aF6.112683542585728
aF8.662904772667389
aF9.32030046424552
aF6.470521694405761
aF13.027917385898036
aF6.478138616112119
aF6.428359846231615
aF13.478581076247792
aF8.935976767901593
aF4.9861979980778415
aF4.843593689667614
aF22.100989381004183
aF27.551210611043643
aF17.394257379837654
aF8.851653071549663
aF4.901874301725911
aF6.952095531814848
aF6.302316761943075
aF6.952537992052385
aF7.809933683627605
aF9.760154913717997
aF4.710376143910253
aF4.660597374029749
aF5.810818604131782
aF7.46103983422654
aF8.11843552580467
aF5.268656755964912
aF12.818877985973813
aF4.7690992162097245
aF5.326494907789311
aF10.576716137831681
aF9.53411182943455
aF7.084333059588971
aF12.341728751100163
aF9.79912444272486
aF5.756520134371385
aF7.406741364466143
aF6.656962594595825
aF5.414358286201605
aF5.971753977781191
aF7.529149669346225
aF5.0793708995006455
aF5.336766591084597
aF9.086987821148796
aF6.844383512769127
aF5.901779204370541
aF5.052000434501679
aF5.102221664619719
aF9.652442894672276
aF8.70983858627369
aF5.4600598164397525
aF5.910281046551972
aF5.360502276678744
aF5.517897968264151
aF4.868119198392378
aF6.618340428485681
aF6.0685616586124524
aF6.825957350189128
aF5.276178580330452
aF8.233574271875113
aF10.290969963432872
aF4.848365655099769
aF5.805761346673535
aF5.055982576803217
aF6.113378268375527
aF4.863599498512485
aF8.420995190048416
aF6.171216420199926
aF6.321437650316511
aF8.171658880408359
aF9.429054571977758
aF5.879275802148186
aF8.329497032231302
aF7.27971826236535
aF6.137113953969674
aF6.28733518408626
aF5.544730875684763
aF5.70212656727017
aF11.852347797299444
aF16.309743488822278
aF8.559964719053824
aF6.317360410674155
aF5.267581640808203
aF16.02497733223936
aF6.4751985624970985
aF4.832594254108699
aF6.182815484207822
aF19.540211175601144
aF11.990432405829779
aF9.147828097458842
aF11.398049327544868
aF5.548270557748765
aF5.305666249339993
aF7.15588747943184
aF8.606108709529508
aF7.1563299396693765
aF25.906551169515296
aF16.65677239976867
aF8.006993630013312
aF5.457214860169188
aF8.707436090240662
aF7.157657320381986
aF6.707878550507303
aF7.358099780616612
aF6.615495472215116
aF5.465716702350619
aF6.223112393927295
aF8.173333624017687
aF7.43072931561619
aF7.88095054572841
aF8.138346237312362
aF5.288567467472603
aF6.145963159047824
aF5.596184389174596
aF7.453580080735264
aF8.01097577231485
aF9.561197002411063
aF15.11859269391789
aF8.668813924130518
aF6.02620961575667
aF5.583605307350808
aF6.741000998921663
aF5.791222229054256
aF5.0486179206527595
aF10.29883915069513
aF6.656234842335834
aF6.113630533931428
aF5.071026225534297
aF7.121247455623234
aF12.371468685665604
aF13.028864377243735
aF9.179085607418529
aF5.536481299059233
aF6.786702529159811
aF7.044098220743763
aF6.1943194508749
aF9.351715142416651
aF5.609110834058811
aF28.459332063845068
aF29.009553293955832
aF19.359774524215027
aF15.517170215858641
aF7.367391446096008
aF13.524787137594103
aF5.075008367835835
aF5.532404059416876
aF8.382625289494172
asS'avg_freq'
p3
cnumpy.core.multiarray
scalar
p4
(cnumpy
dtype
p5
(S'f8'
p6
I0
I1
tp7
Rp8
(I3
S'<'
p9
NNNI-1
I-1
I0
tp10
bS'\x11h\xb7\xc5\xa8\xe8\xf1?'
p11
tp12
Rp13
s.